	.file	"dht_lib.c"
	.option nopic
	.attribute arch, "rv32i2p0_m2p0_f2p0_c2p0"
	.attribute unaligned_access, 0
	.attribute stack_align, 16
	.text
.Ltext0:
	.cfi_sections	.debug_frame
	.section	.text.DHT_init,"ax",@progbits
	.align	1
	.globl	DHT_init
	.type	DHT_init, @function
DHT_init:
.LFB3:
	.file 1 "/home/shoaib/bl_iot_sdk/customer_app/sdk_app_helloworld/sdk_app_helloworld/dht_lib.c"
	.loc 1 14 1
	.cfi_startproc
.LVL0:
	.loc 1 15 5
	.loc 1 15 12 is_stmt 0
	lui	a5,%hi(pinDht)
	sb	a0,%lo(pinDht)(a5)
	.loc 1 16 1
	ret
	.cfi_endproc
.LFE3:
	.size	DHT_init, .-DHT_init
	.section	.text.DHT_Start,"ax",@progbits
	.align	1
	.globl	DHT_Start
	.type	DHT_Start, @function
DHT_Start:
.LFB4:
	.loc 1 20 1 is_stmt 1
	.cfi_startproc
	.loc 1 22 5
	.loc 1 20 1 is_stmt 0
	addi	sp,sp,-16
	.cfi_def_cfa_offset 16
	sw	s0,8(sp)
	.cfi_offset 8, -8
	.loc 1 22 5
	lui	s0,%hi(pinDht)
	lbu	a0,%lo(pinDht)(s0)
	li	a2,0
	li	a1,0
	.loc 1 20 1
	sw	ra,12(sp)
	.cfi_offset 1, -4
	.loc 1 22 5
	call	bl_gpio_enable_output
.LVL1:
	.loc 1 25 5 is_stmt 1
	lbu	a0,%lo(pinDht)(s0)
	li	a1,0
	call	bl_gpio_output_set
.LVL2:
	.loc 1 26 5
	li	a0,16384
	addi	a0,a0,1616
	call	bl_timer_delay_us
.LVL3:
	.loc 1 29 5
	lbu	a0,%lo(pinDht)(s0)
	li	a1,1
	call	bl_gpio_output_set
.LVL4:
	.loc 1 30 5
	li	a0,30
	call	bl_timer_delay_us
.LVL5:
	.loc 1 33 5
	lbu	a0,%lo(pinDht)(s0)
	.loc 1 34 1 is_stmt 0
	lw	s0,8(sp)
	.cfi_restore 8
	lw	ra,12(sp)
	.cfi_restore 1
	.loc 1 33 5
	li	a2,0
	.loc 1 34 1
	.loc 1 33 5
	li	a1,0
	.loc 1 34 1
	addi	sp,sp,16
	.cfi_def_cfa_offset 0
	.loc 1 33 5
	tail	bl_gpio_enable_input
.LVL6:
	.cfi_endproc
.LFE4:
	.size	DHT_Start, .-DHT_Start
	.section	.text.DHT_Check_Response,"ax",@progbits
	.align	1
	.globl	DHT_Check_Response
	.type	DHT_Check_Response, @function
DHT_Check_Response:
.LFB5:
	.loc 1 38 1 is_stmt 1
	.cfi_startproc
	.loc 1 39 5
.LVL7:
	.loc 1 42 5
	.loc 1 38 1 is_stmt 0
	addi	sp,sp,-16
	.cfi_def_cfa_offset 16
	.loc 1 42 5
	li	a0,40
	.loc 1 38 1
	sw	ra,12(sp)
	sw	s0,8(sp)
	sw	s1,4(sp)
	.cfi_offset 1, -4
	.cfi_offset 8, -8
	.cfi_offset 9, -12
	.loc 1 45 10
	lui	s0,%hi(pinDht)
	.loc 1 42 5
	call	bl_timer_delay_us
.LVL8:
	.loc 1 45 5 is_stmt 1
	.loc 1 45 10 is_stmt 0
	lbu	a0,%lo(pinDht)(s0)
	.loc 1 39 13
	li	s1,0
	.loc 1 45 10
	call	bl_gpio_input_get_value
.LVL9:
	.loc 1 45 8
	bne	a0,zero,.L6
	.loc 1 48 9 is_stmt 1
	li	a0,80
	call	bl_timer_delay_us
.LVL10:
	.loc 1 51 9
	.loc 1 51 13 is_stmt 0
	lbu	a0,%lo(pinDht)(s0)
	.loc 1 52 22
	li	s1,1
	.loc 1 51 13
	call	bl_gpio_input_get_value
.LVL11:
	.loc 1 51 12
	bne	a0,zero,.L6
	.loc 1 54 22
	li	s1,255
.LVL12:
.L6:
	.loc 1 58 44 is_stmt 1 discriminator 1
	.loc 1 58 12 is_stmt 0 discriminator 1
	lbu	a0,%lo(pinDht)(s0)
	call	bl_gpio_input_get_value
.LVL13:
	.loc 1 58 11 discriminator 1
	bne	a0,zero,.L6
	.loc 1 60 5 is_stmt 1
	.loc 1 61 1 is_stmt 0
	lw	ra,12(sp)
	.cfi_restore 1
	lw	s0,8(sp)
	.cfi_restore 8
	mv	a0,s1
	lw	s1,4(sp)
	.cfi_restore 9
.LVL14:
	addi	sp,sp,16
	.cfi_def_cfa_offset 0
	jr	ra
	.cfi_endproc
.LFE5:
	.size	DHT_Check_Response, .-DHT_Check_Response
	.section	.text.DHT_Read,"ax",@progbits
	.align	1
	.globl	DHT_Read
	.type	DHT_Read, @function
DHT_Read:
.LFB6:
	.loc 1 65 1 is_stmt 1
	.cfi_startproc
	.loc 1 66 5
.LVL15:
	.loc 1 69 5
	.loc 1 65 1 is_stmt 0
	addi	sp,sp,-32
	.cfi_def_cfa_offset 32
	sw	s0,24(sp)
	sw	s1,20(sp)
	sw	s2,16(sp)
	sw	s3,12(sp)
	sw	s4,8(sp)
	sw	ra,28(sp)
	.cfi_offset 8, -8
	.cfi_offset 9, -12
	.cfi_offset 18, -16
	.cfi_offset 19, -20
	.cfi_offset 20, -24
	.cfi_offset 1, -4
	.loc 1 65 1
	li	s1,7
	.loc 1 66 13
	li	s0,0
	.loc 1 72 18
	lui	s2,%hi(pinDht)
	li	s4,1
	.loc 1 69 5
	li	s3,-1
.LVL16:
.L12:
	.loc 1 72 51 is_stmt 1 discriminator 1
	.loc 1 72 18 is_stmt 0 discriminator 1
	lbu	a0,%lo(pinDht)(s2)
	call	bl_gpio_input_get_value
.LVL17:
	.loc 1 72 15 discriminator 1
	beq	a0,zero,.L12
	.loc 1 75 9 is_stmt 1
	li	a0,40
	call	bl_timer_delay_us
.LVL18:
	.loc 1 78 9
	.loc 1 78 15 is_stmt 0
	lbu	a0,%lo(pinDht)(s2)
	slli	s0,s0,24
	srai	s0,s0,24
	call	bl_gpio_input_get_value
.LVL19:
	sll	a5,s4,s1
	slli	a5,a5,24
	srai	a5,a5,24
	.loc 1 78 12
	bne	a0,zero,.L13
	.loc 1 80 13 is_stmt 1
	.loc 1 80 15 is_stmt 0
	not	a5,a5
	and	s0,s0,a5
.L22:
	.loc 1 84 15
	andi	s0,s0,0xff
.LVL20:
.L15:
	.loc 1 88 50 is_stmt 1 discriminator 1
	.loc 1 88 17 is_stmt 0 discriminator 1
	lbu	a0,%lo(pinDht)(s2)
	call	bl_gpio_input_get_value
.LVL21:
	.loc 1 88 15 discriminator 1
	bne	a0,zero,.L15
.LVL22:
	addi	s1,s1,-1
.LVL23:
	.loc 1 69 5 discriminator 2
	bne	s1,s3,.L12
	.loc 1 90 5 is_stmt 1
	.loc 1 91 1 is_stmt 0
	mv	a0,s0
	lw	ra,28(sp)
	.cfi_remember_state
	.cfi_restore 1
	lw	s0,24(sp)
	.cfi_restore 8
.LVL24:
	lw	s1,20(sp)
	.cfi_restore 9
	lw	s2,16(sp)
	.cfi_restore 18
	lw	s3,12(sp)
	.cfi_restore 19
	lw	s4,8(sp)
	.cfi_restore 20
	addi	sp,sp,32
	.cfi_def_cfa_offset 0
	jr	ra
.LVL25:
.L13:
	.cfi_restore_state
	.loc 1 84 13 is_stmt 1
	.loc 1 84 15 is_stmt 0
	or	s0,a5,s0
	j	.L22
	.cfi_endproc
.LFE6:
	.size	DHT_Read, .-DHT_Read
	.section	.text.DHT_GetData,"ax",@progbits
	.align	1
	.globl	DHT_GetData
	.type	DHT_GetData, @function
DHT_GetData:
.LFB7:
	.loc 1 97 1 is_stmt 1
	.cfi_startproc
.LVL26:
	.loc 1 98 5
	.loc 1 100 5
	.loc 1 97 1 is_stmt 0
	addi	sp,sp,-32
	.cfi_def_cfa_offset 32
	sw	ra,28(sp)
	sw	s0,24(sp)
	sw	s1,20(sp)
	sw	s2,16(sp)
	sw	s3,12(sp)
	sw	s4,8(sp)
	.cfi_offset 1, -4
	.cfi_offset 8, -8
	.cfi_offset 9, -12
	.cfi_offset 18, -16
	.cfi_offset 19, -20
	.cfi_offset 20, -24
	.loc 1 97 1
	mv	s1,a0
	.loc 1 100 5
	call	DHT_Start
.LVL27:
	.loc 1 103 5 is_stmt 1
	call	DHT_Check_Response
.LVL28:
	.loc 1 106 5
	.loc 1 106 16 is_stmt 0
	call	DHT_Read
.LVL29:
	mv	s2,a0
.LVL30:
	.loc 1 107 5 is_stmt 1
	.loc 1 107 16 is_stmt 0
	call	DHT_Read
.LVL31:
	mv	s0,a0
.LVL32:
	.loc 1 108 5 is_stmt 1
	.loc 1 108 18 is_stmt 0
	call	DHT_Read
.LVL33:
	mv	s3,a0
.LVL34:
	.loc 1 109 5 is_stmt 1
	.loc 1 109 18 is_stmt 0
	call	DHT_Read
.LVL35:
	mv	s4,a0
.LVL36:
	.loc 1 110 5 is_stmt 1
	.loc 1 110 11 is_stmt 0
	call	DHT_Read
.LVL37:
	.loc 1 113 5 is_stmt 1
	.loc 1 115 5
	.loc 1 113 41 is_stmt 0
	add	a5,s2,s0
	.loc 1 113 52
	add	a5,a5,s3
	.loc 1 113 65
	add	a5,a5,s4
	.loc 1 115 8
	bne	a0,a5,.L23
.LBB2:
	.loc 1 118 9 is_stmt 1
	.loc 1 118 31 is_stmt 0
	fcvt.s.wu	fa5,s3
	fsw	fa5,0(s1)
	.loc 1 119 9 is_stmt 1
	.loc 1 119 28 is_stmt 0
	fcvt.s.wu	fa5,s2
	fsw	fa5,4(s1)
	.loc 1 121 9 is_stmt 1
	.loc 1 121 38 is_stmt 0
	call	rand
.LVL38:
	mv	s0,a0
.LVL39:
	.loc 1 122 9 is_stmt 1
	.loc 1 122 37 is_stmt 0
	call	rand
.LVL40:
	.loc 1 125 9 is_stmt 1
	.loc 1 121 45 is_stmt 0
	li	a5,21
	rem	a4,s0,a5
	.loc 1 125 31
	flw	fa3,0(s1)
	.loc 1 122 44
	rem	a0,a0,a5
.LVL41:
	.loc 1 121 51
	addi	a4,a4,-10
	.loc 1 121 57
	fcvt.s.w	fa4,a4
	.loc 1 121 15
	lui	a4,%hi(.LC0)
	flw	fa2,%lo(.LC0)(a4)
	fdiv.s	fa4,fa4,fa2
.LVL42:
	.loc 1 125 31
	fadd.s	fa4,fa3,fa4
.LVL43:
	fsw	fa4,0(s1)
	.loc 1 126 9 is_stmt 1
	.loc 1 126 28 is_stmt 0
	flw	fa4,4(s1)
	.loc 1 122 50
	addi	a0,a0,-10
	.loc 1 122 56
	fcvt.s.w	fa5,a0
	.loc 1 122 15
	fdiv.s	fa5,fa5,fa2
.LVL44:
	.loc 1 126 28
	fadd.s	fa5,fa4,fa5
.LVL45:
	fsw	fa5,4(s1)
.LVL46:
.L23:
.LBE2:
	.loc 1 128 1
	lw	ra,28(sp)
	.cfi_restore 1
	lw	s0,24(sp)
	.cfi_restore 8
	lw	s1,20(sp)
	.cfi_restore 9
.LVL47:
	lw	s2,16(sp)
	.cfi_restore 18
.LVL48:
	lw	s3,12(sp)
	.cfi_restore 19
.LVL49:
	lw	s4,8(sp)
	.cfi_restore 20
.LVL50:
	addi	sp,sp,32
	.cfi_def_cfa_offset 0
	jr	ra
	.cfi_endproc
.LFE7:
	.size	DHT_GetData, .-DHT_GetData
	.comm	pinDht,1,1
	.section	.rodata.DHT_GetData.cst4,"aM",@progbits,4
	.align	2
.LC0:
	.word	1101004800
	.text
.Letext0:
	.file 2 "/home/shoaib/bl_iot_sdk/toolchain/riscv/Linux/riscv64-unknown-elf/include/machine/_default_types.h"
	.file 3 "/home/shoaib/bl_iot_sdk/toolchain/riscv/Linux/lib/gcc/riscv64-unknown-elf/8.3.0/include/stddef.h"
	.file 4 "/home/shoaib/bl_iot_sdk/toolchain/riscv/Linux/riscv64-unknown-elf/include/sys/_types.h"
	.file 5 "/home/shoaib/bl_iot_sdk/toolchain/riscv/Linux/riscv64-unknown-elf/include/sys/reent.h"
	.file 6 "/home/shoaib/bl_iot_sdk/toolchain/riscv/Linux/riscv64-unknown-elf/include/sys/lock.h"
	.file 7 "/home/shoaib/bl_iot_sdk/toolchain/riscv/Linux/riscv64-unknown-elf/include/sys/_stdint.h"
	.file 8 "/home/shoaib/bl_iot_sdk/customer_app/sdk_app_helloworld/sdk_app_helloworld/dht_lib.h"
	.file 9 "/home/shoaib/bl_iot_sdk/toolchain/riscv/Linux/riscv64-unknown-elf/include/stdlib.h"
	.file 10 "/home/shoaib/bl_iot_sdk/components/hal_drv/bl602_hal/bl_gpio.h"
	.file 11 "/home/shoaib/bl_iot_sdk/components/hal_drv/bl602_hal/bl_timer.h"