Archive member included to satisfy reference by file (symbol)

/home/shoaib/bl_iot_sdk/customer_app/sdk_app_helloworld/build_out/bl602/libbl602.a(start.o)
                              (bl602_start)
/home/shoaib/bl_iot_sdk/customer_app/sdk_app_helloworld/build_out/hal_drv/libhal_drv.a(hal_boot2.o)
                              /home/shoaib/bl_iot_sdk/customer_app/sdk_app_helloworld/build_out/bl602/libbl602.a(start.o) (hal_boot2_get_flash_addr)
/home/shoaib/bl_iot_sdk/customer_app/sdk_app_helloworld/build_out/hal_drv/libhal_drv.a(bl_boot2.o)
                              /home/shoaib/bl_iot_sdk/customer_app/sdk_app_helloworld/build_out/hal_drv/libhal_drv.a(hal_boot2.o) (PtTable_Update_Entry)
/home/shoaib/bl_iot_sdk/customer_app/sdk_app_helloworld/build_out/hal_drv/libhal_drv.a(bl_flash.o)
                              /home/shoaib/bl_iot_sdk/customer_app/sdk_app_helloworld/build_out/hal_drv/libhal_drv.a(bl_boot2.o) (bl_flash_erase)
/home/shoaib/bl_iot_sdk/customer_app/sdk_app_helloworld/build_out/sdk_app_helloworld/libsdk_app_helloworld.a(main.o)
                              /home/shoaib/bl_iot_sdk/customer_app/sdk_app_helloworld/build_out/bl602/libbl602.a(start.o) (bfl_main)
/home/shoaib/bl_iot_sdk/customer_app/sdk_app_helloworld/build_out/sdk_app_helloworld/libsdk_app_helloworld.a(led.o)
                              /home/shoaib/bl_iot_sdk/customer_app/sdk_app_helloworld/build_out/sdk_app_helloworld/libsdk_app_helloworld.a(main.o) (task_led)
/home/shoaib/bl_iot_sdk/customer_app/sdk_app_helloworld/build_out/bl602/libbl602.a(debug.o)
                              /home/shoaib/bl_iot_sdk/customer_app/sdk_app_helloworld/build_out/sdk_app_helloworld/libsdk_app_helloworld.a(main.o) (printf)
/home/shoaib/bl_iot_sdk/customer_app/sdk_app_helloworld/build_out/bl602_std/libbl602_std.a(softcrc.o)
                              /home/shoaib/bl_iot_sdk/customer_app/sdk_app_helloworld/build_out/hal_drv/libhal_drv.a(bl_boot2.o) (BFLB_Soft_CRC32)
/home/shoaib/bl_iot_sdk/customer_app/sdk_app_helloworld/build_out/freertos_riscv_ram/libfreertos_riscv_ram.a(tasks.o)
                              /home/shoaib/bl_iot_sdk/customer_app/sdk_app_helloworld/build_out/sdk_app_helloworld/libsdk_app_helloworld.a(main.o) (xTaskCreateStatic)
/home/shoaib/bl_iot_sdk/customer_app/sdk_app_helloworld/build_out/freertos_riscv_ram/libfreertos_riscv_ram.a(timers.o)
                              /home/shoaib/bl_iot_sdk/customer_app/sdk_app_helloworld/build_out/freertos_riscv_ram/libfreertos_riscv_ram.a(tasks.o) (xTimerCreateTimerTask)
/home/shoaib/bl_iot_sdk/customer_app/sdk_app_helloworld/build_out/freertos_riscv_ram/libfreertos_riscv_ram.a(port.o)
                              /home/shoaib/bl_iot_sdk/customer_app/sdk_app_helloworld/build_out/freertos_riscv_ram/libfreertos_riscv_ram.a(tasks.o) (xPortStartScheduler)
/home/shoaib/bl_iot_sdk/customer_app/sdk_app_helloworld/build_out/freertos_riscv_ram/libfreertos_riscv_ram.a(portASM.o)
                              /home/shoaib/bl_iot_sdk/customer_app/sdk_app_helloworld/build_out/freertos_riscv_ram/libfreertos_riscv_ram.a(port.o) (xPortStartFirstTask)
/home/shoaib/bl_iot_sdk/customer_app/sdk_app_helloworld/build_out/freertos_riscv_ram/libfreertos_riscv_ram.a(heap_5.o)
                              /home/shoaib/bl_iot_sdk/customer_app/sdk_app_helloworld/build_out/freertos_riscv_ram/libfreertos_riscv_ram.a(tasks.o) (pvPortMalloc)
/home/shoaib/bl_iot_sdk/customer_app/sdk_app_helloworld/build_out/freertos_riscv_ram/libfreertos_riscv_ram.a(list.o)
                              /home/shoaib/bl_iot_sdk/customer_app/sdk_app_helloworld/build_out/freertos_riscv_ram/libfreertos_riscv_ram.a(tasks.o) (vListInitialise)
/home/shoaib/bl_iot_sdk/customer_app/sdk_app_helloworld/build_out/freertos_riscv_ram/libfreertos_riscv_ram.a(queue.o)
                              /home/shoaib/bl_iot_sdk/customer_app/sdk_app_helloworld/build_out/freertos_riscv_ram/libfreertos_riscv_ram.a(timers.o) (xQueueGenericCreateStatic)
/home/shoaib/bl_iot_sdk/customer_app/sdk_app_helloworld/build_out/hal_drv/libhal_drv.a(bl_uart.o)
                              /home/shoaib/bl_iot_sdk/customer_app/sdk_app_helloworld/build_out/sdk_app_helloworld/libsdk_app_helloworld.a(main.o) (bl_uart_init)
/home/shoaib/bl_iot_sdk/customer_app/sdk_app_helloworld/build_out/hal_drv/libhal_drv.a(bl_sys.o)
                              /home/shoaib/bl_iot_sdk/customer_app/sdk_app_helloworld/build_out/bl602/libbl602.a(debug.o) (sys_log_all_enable)
/home/shoaib/bl_iot_sdk/customer_app/sdk_app_helloworld/build_out/hal_drv/libhal_drv.a(bl_irq.o)
                              /home/shoaib/bl_iot_sdk/customer_app/sdk_app_helloworld/build_out/hal_drv/libhal_drv.a(bl_uart.o) (bl_irq_enable)
/home/shoaib/bl_iot_sdk/customer_app/sdk_app_helloworld/build_out/hal_drv/libhal_drv.a(bl_gpio.o)
                              /home/shoaib/bl_iot_sdk/customer_app/sdk_app_helloworld/build_out/sdk_app_helloworld/libsdk_app_helloworld.a(led.o) (bl_gpio_enable_output)
/home/shoaib/bl_iot_sdk/customer_app/sdk_app_helloworld/build_out/sdk_app_helloworld/libsdk_app_helloworld.a(freertos.o)
                              /home/shoaib/bl_iot_sdk/customer_app/sdk_app_helloworld/build_out/freertos_riscv_ram/libfreertos_riscv_ram.a(tasks.o) (vAssertCalled)
/home/shoaib/bl_iot_sdk/customer_app/sdk_app_helloworld/build_out/bl602_std/libbl602_std.a(bl602_uart.o)
                              /home/shoaib/bl_iot_sdk/customer_app/sdk_app_helloworld/build_out/hal_drv/libhal_drv.a(bl_uart.o) (UART_Init)
/home/shoaib/bl_iot_sdk/customer_app/sdk_app_helloworld/build_out/bl602_std/libbl602_std.a(bl602_glb.o)
                              /home/shoaib/bl_iot_sdk/customer_app/sdk_app_helloworld/build_out/hal_drv/libhal_drv.a(bl_uart.o) (GLB_Set_UART_CLK)
/home/shoaib/bl_iot_sdk/customer_app/sdk_app_helloworld/build_out/bl602_std/libbl602_std.a(bl602_hbn.o)
                              /home/shoaib/bl_iot_sdk/customer_app/sdk_app_helloworld/build_out/bl602_std/libbl602_std.a(bl602_glb.o) (HBN_Set_UART_CLK_Sel)
/home/shoaib/bl_iot_sdk/customer_app/sdk_app_helloworld/build_out/bl602_std/libbl602_std.a(bl602_aon.o)
                              /home/shoaib/bl_iot_sdk/customer_app/sdk_app_helloworld/build_out/bl602_std/libbl602_std.a(bl602_glb.o) (AON_Power_On_XTAL)
/home/shoaib/bl_iot_sdk/customer_app/sdk_app_helloworld/build_out/bl602_std/libbl602_std.a(bl602_pds.o)
                              /home/shoaib/bl_iot_sdk/customer_app/sdk_app_helloworld/build_out/bl602_std/libbl602_std.a(bl602_glb.o) (PDS_Enable_PLL_All_Clks)
/home/shoaib/bl_iot_sdk/customer_app/sdk_app_helloworld/build_out/bl602_std/libbl602_std.a(bl602_l1c.o)
                              /home/shoaib/bl_iot_sdk/customer_app/sdk_app_helloworld/build_out/bl602_std/libbl602_std.a(bl602_glb.o) (L1C_IROM_2T_Access_Set)
/home/shoaib/bl_iot_sdk/customer_app/sdk_app_helloworld/build_out/bl602_std/libbl602_std.a(bl602_ef_ctrl.o)
                              /home/shoaib/bl_iot_sdk/customer_app/sdk_app_helloworld/build_out/bl602_std/libbl602_std.a(bl602_hbn.o) (EF_Ctrl_Get_Trim_Parity)
/home/shoaib/bl_iot_sdk/customer_app/sdk_app_helloworld/build_out/bl602_std/libbl602_std.a(bl602_romapi.o)
                              /home/shoaib/bl_iot_sdk/customer_app/sdk_app_helloworld/build_out/bl602_std/libbl602_std.a(bl602_glb.o) (BL602_Delay_US)
/home/shoaib/bl_iot_sdk/customer_app/sdk_app_helloworld/build_out/bltime/libbltime.a(bl_sys_time.o)
                              /home/shoaib/bl_iot_sdk/customer_app/sdk_app_helloworld/build_out/freertos_riscv_ram/libfreertos_riscv_ram.a(tasks.o) (bl_sys_time_sync_state)
/home/shoaib/bl_iot_sdk/customer_app/sdk_app_helloworld/build_out/freertos_riscv_ram/libfreertos_riscv_ram.a(misaligned_ldst.o)
                              /home/shoaib/bl_iot_sdk/customer_app/sdk_app_helloworld/build_out/hal_drv/libhal_drv.a(bl_irq.o) (misaligned_load_trap)
/home/shoaib/bl_iot_sdk/customer_app/sdk_app_helloworld/build_out/freertos_riscv_ram/libfreertos_riscv_ram.a(fp_asm.o)
                              /home/shoaib/bl_iot_sdk/customer_app/sdk_app_helloworld/build_out/freertos_riscv_ram/libfreertos_riscv_ram.a(misaligned_ldst.o) (get_f32_reg)
/home/shoaib/bl_iot_sdk/customer_app/sdk_app_helloworld/build_out/freertos_riscv_ram/libfreertos_riscv_ram.a(panic_c.o)
                              /home/shoaib/bl_iot_sdk/customer_app/sdk_app_helloworld/build_out/hal_drv/libhal_drv.a(bl_irq.o) (backtrace_now)
/home/shoaib/bl_iot_sdk/customer_app/sdk_app_helloworld/build_out/hal_drv/libhal_drv.a(bl_rtc.o)
                              /home/shoaib/bl_iot_sdk/customer_app/sdk_app_helloworld/build_out/bltime/libbltime.a(bl_sys_time.o) (bl_rtc_get_timestamp_ms)
/home/shoaib/bl_iot_sdk/toolchain/riscv/Linux/bin/../lib/gcc/riscv64-unknown-elf/8.3.0/../../../../riscv64-unknown-elf/lib/rv32imf/ilp32f/libm.a(lib_a-s_modf.o)
                              /home/shoaib/bl_iot_sdk/customer_app/sdk_app_helloworld/build_out/bl602/libbl602.a(debug.o) (modf)
/home/shoaib/bl_iot_sdk/toolchain/riscv/Linux/bin/../lib/gcc/riscv64-unknown-elf/8.3.0/rv32imf/ilp32f/libgcc.a(_lshrdi3.o)
                              /home/shoaib/bl_iot_sdk/customer_app/sdk_app_helloworld/build_out/bl602_std/libbl602_std.a(bl602_ef_ctrl.o) (__lshrdi3)
/home/shoaib/bl_iot_sdk/toolchain/riscv/Linux/bin/../lib/gcc/riscv64-unknown-elf/8.3.0/rv32imf/ilp32f/libgcc.a(_ashldi3.o)
                              /home/shoaib/bl_iot_sdk/customer_app/sdk_app_helloworld/build_out/bl602_std/libbl602_std.a(bl602_ef_ctrl.o) (__ashldi3)
/home/shoaib/bl_iot_sdk/toolchain/riscv/Linux/bin/../lib/gcc/riscv64-unknown-elf/8.3.0/rv32imf/ilp32f/libgcc.a(_clzsi2.o)
                              /home/shoaib/bl_iot_sdk/customer_app/sdk_app_helloworld/build_out/freertos_riscv_ram/libfreertos_riscv_ram.a(tasks.o) (__clzsi2)
/home/shoaib/bl_iot_sdk/toolchain/riscv/Linux/bin/../lib/gcc/riscv64-unknown-elf/8.3.0/rv32imf/ilp32f/libgcc.a(_udivdi3.o)
                              /home/shoaib/bl_iot_sdk/customer_app/sdk_app_helloworld/build_out/bl602/libbl602.a(debug.o) (__udivdi3)
/home/shoaib/bl_iot_sdk/toolchain/riscv/Linux/bin/../lib/gcc/riscv64-unknown-elf/8.3.0/rv32imf/ilp32f/libgcc.a(_umoddi3.o)
                              /home/shoaib/bl_iot_sdk/customer_app/sdk_app_helloworld/build_out/bl602/libbl602.a(debug.o) (__umoddi3)
/home/shoaib/bl_iot_sdk/toolchain/riscv/Linux/bin/../lib/gcc/riscv64-unknown-elf/8.3.0/rv32imf/ilp32f/libgcc.a(adddf3.o)
                              /home/shoaib/bl_iot_sdk/customer_app/sdk_app_helloworld/build_out/bl602/libbl602.a(debug.o) (__adddf3)
/home/shoaib/bl_iot_sdk/toolchain/riscv/Linux/bin/../lib/gcc/riscv64-unknown-elf/8.3.0/rv32imf/ilp32f/libgcc.a(divdf3.o)
                              /home/shoaib/bl_iot_sdk/customer_app/sdk_app_helloworld/build_out/bl602/libbl602.a(debug.o) (__divdf3)
/home/shoaib/bl_iot_sdk/toolchain/riscv/Linux/bin/../lib/gcc/riscv64-unknown-elf/8.3.0/rv32imf/ilp32f/libgcc.a(eqdf2.o)
                              /home/shoaib/bl_iot_sdk/customer_app/sdk_app_helloworld/build_out/bl602/libbl602.a(debug.o) (__eqdf2)
/home/shoaib/bl_iot_sdk/toolchain/riscv/Linux/bin/../lib/gcc/riscv64-unknown-elf/8.3.0/rv32imf/ilp32f/libgcc.a(gedf2.o)
                              /home/shoaib/bl_iot_sdk/customer_app/sdk_app_helloworld/build_out/bl602/libbl602.a(debug.o) (__gtdf2)
/home/shoaib/bl_iot_sdk/toolchain/riscv/Linux/bin/../lib/gcc/riscv64-unknown-elf/8.3.0/rv32imf/ilp32f/libgcc.a(ledf2.o)
                              /home/shoaib/bl_iot_sdk/customer_app/sdk_app_helloworld/build_out/bl602/libbl602.a(debug.o) (__ltdf2)
/home/shoaib/bl_iot_sdk/toolchain/riscv/Linux/bin/../lib/gcc/riscv64-unknown-elf/8.3.0/rv32imf/ilp32f/libgcc.a(muldf3.o)
                              /home/shoaib/bl_iot_sdk/customer_app/sdk_app_helloworld/build_out/bl602/libbl602.a(debug.o) (__muldf3)
/home/shoaib/bl_iot_sdk/toolchain/riscv/Linux/bin/../lib/gcc/riscv64-unknown-elf/8.3.0/rv32imf/ilp32f/libgcc.a(subdf3.o)
                              /home/shoaib/bl_iot_sdk/toolchain/riscv/Linux/bin/../lib/gcc/riscv64-unknown-elf/8.3.0/../../../../riscv64-unknown-elf/lib/rv32imf/ilp32f/libm.a(lib_a-s_modf.o) (__subdf3)
/home/shoaib/bl_iot_sdk/toolchain/riscv/Linux/bin/../lib/gcc/riscv64-unknown-elf/8.3.0/rv32imf/ilp32f/libgcc.a(fixdfsi.o)
                              /home/shoaib/bl_iot_sdk/customer_app/sdk_app_helloworld/build_out/bl602/libbl602.a(debug.o) (__fixdfsi)
/home/shoaib/bl_iot_sdk/toolchain/riscv/Linux/bin/../lib/gcc/riscv64-unknown-elf/8.3.0/rv32imf/ilp32f/libgcc.a(_clz.o)
                              /home/shoaib/bl_iot_sdk/toolchain/riscv/Linux/bin/../lib/gcc/riscv64-unknown-elf/8.3.0/rv32imf/ilp32f/libgcc.a(_clzsi2.o) (__clz_tab)
/home/shoaib/bl_iot_sdk/toolchain/riscv/Linux/bin/../lib/gcc/riscv64-unknown-elf/8.3.0/../../../../riscv64-unknown-elf/lib/rv32imf/ilp32f/libc.a(lib_a-memcpy.o)
                              /home/shoaib/bl_iot_sdk/customer_app/sdk_app_helloworld/build_out/hal_drv/libhal_drv.a(bl_boot2.o) (memcpy)
/home/shoaib/bl_iot_sdk/toolchain/riscv/Linux/bin/../lib/gcc/riscv64-unknown-elf/8.3.0/../../../../riscv64-unknown-elf/lib/rv32imf/ilp32f/libc.a(lib_a-memset.o)
                              /home/shoaib/bl_iot_sdk/customer_app/sdk_app_helloworld/build_out/freertos_riscv_ram/libfreertos_riscv_ram.a(tasks.o) (memset)
/home/shoaib/bl_iot_sdk/toolchain/riscv/Linux/bin/../lib/gcc/riscv64-unknown-elf/8.3.0/../../../../riscv64-unknown-elf/lib/rv32imf/ilp32f/libc.a(lib_a-rand.o)
                              /home/shoaib/bl_iot_sdk/customer_app/sdk_app_helloworld/build_out/sdk_app_helloworld/libsdk_app_helloworld.a(main.o) (rand)
/home/shoaib/bl_iot_sdk/toolchain/riscv/Linux/bin/../lib/gcc/riscv64-unknown-elf/8.3.0/../../../../riscv64-unknown-elf/lib/rv32imf/ilp32f/libc.a(lib_a-strcmp.o)
                              /home/shoaib/bl_iot_sdk/customer_app/sdk_app_helloworld/build_out/hal_drv/libhal_drv.a(hal_boot2.o) (strcmp)
/home/shoaib/bl_iot_sdk/toolchain/riscv/Linux/bin/../lib/gcc/riscv64-unknown-elf/8.3.0/../../../../riscv64-unknown-elf/lib/rv32imf/ilp32f/libc.a(lib_a-strcpy.o)
                              /home/shoaib/bl_iot_sdk/customer_app/sdk_app_helloworld/build_out/freertos_riscv_ram/libfreertos_riscv_ram.a(tasks.o) (strcpy)
/home/shoaib/bl_iot_sdk/toolchain/riscv/Linux/bin/../lib/gcc/riscv64-unknown-elf/8.3.0/../../../../riscv64-unknown-elf/lib/rv32imf/ilp32f/libc.a(lib_a-strlen.o)
                              /home/shoaib/bl_iot_sdk/customer_app/sdk_app_helloworld/build_out/bl602/libbl602.a(debug.o) (strlen)
/home/shoaib/bl_iot_sdk/toolchain/riscv/Linux/bin/../lib/gcc/riscv64-unknown-elf/8.3.0/../../../../riscv64-unknown-elf/lib/rv32imf/ilp32f/libc.a(lib_a-strnlen.o)
                              /home/shoaib/bl_iot_sdk/customer_app/sdk_app_helloworld/build_out/bl602/libbl602.a(debug.o) (strnlen)
/home/shoaib/bl_iot_sdk/toolchain/riscv/Linux/bin/../lib/gcc/riscv64-unknown-elf/8.3.0/../../../../riscv64-unknown-elf/lib/rv32imf/ilp32f/libc.a(lib_a-impure.o)
                              /home/shoaib/bl_iot_sdk/toolchain/riscv/Linux/bin/../lib/gcc/riscv64-unknown-elf/8.3.0/../../../../riscv64-unknown-elf/lib/rv32imf/ilp32f/libc.a(lib_a-rand.o) (_impure_ptr)

Allocating common symbols
Common symbol       size              file

xQueueRegistry      0x40              /home/shoaib/bl_iot_sdk/customer_app/sdk_app_helloworld/build_out/freertos_riscv_ram/libfreertos_riscv_ram.a(queue.o)

Discarded input sections

 .text          0x0000000000000000        0x0 /home/shoaib/bl_iot_sdk/customer_app/sdk_app_helloworld/build_out/bl602/libbl602.a(start.o)
 .data          0x0000000000000000        0x0 /home/shoaib/bl_iot_sdk/customer_app/sdk_app_helloworld/build_out/bl602/libbl602.a(start.o)
 .bss           0x0000000000000000        0x0 /home/shoaib/bl_iot_sdk/customer_app/sdk_app_helloworld/build_out/bl602/libbl602.a(start.o)
 .eh_frame      0x0000000000000000       0x2c /home/shoaib/bl_iot_sdk/customer_app/sdk_app_helloworld/build_out/bl602/libbl602.a(start.o)
 .text          0x0000000000000000        0x0 /home/shoaib/bl_iot_sdk/customer_app/sdk_app_helloworld/build_out/hal_drv/libhal_drv.a(hal_boot2.o)
 .data          0x0000000000000000        0x0 /home/shoaib/bl_iot_sdk/customer_app/sdk_app_helloworld/build_out/hal_drv/libhal_drv.a(hal_boot2.o)
 .bss           0x0000000000000000        0x0 /home/shoaib/bl_iot_sdk/customer_app/sdk_app_helloworld/build_out/hal_drv/libhal_drv.a(hal_boot2.o)
 .text.hal_boot2_set_ptable_opt
                0x0000000000000000        0x8 /home/shoaib/bl_iot_sdk/customer_app/sdk_app_helloworld/build_out/hal_drv/libhal_drv.a(hal_boot2.o)
 .text.hal_boot2_update_ptable
                0x0000000000000000       0x3a /home/shoaib/bl_iot_sdk/customer_app/sdk_app_helloworld/build_out/hal_drv/libhal_drv.a(hal_boot2.o)
 .text.hal_boot2_partition_bus_addr
                0x0000000000000000      0x17c /home/shoaib/bl_iot_sdk/customer_app/sdk_app_helloworld/build_out/hal_drv/libhal_drv.a(hal_boot2.o)
 .text.hal_boot2_partition_bus_addr_active
                0x0000000000000000       0x40 /home/shoaib/bl_iot_sdk/customer_app/sdk_app_helloworld/build_out/hal_drv/libhal_drv.a(hal_boot2.o)
 .text.hal_boot2_partition_bus_addr_inactive
                0x0000000000000000       0x40 /home/shoaib/bl_iot_sdk/customer_app/sdk_app_helloworld/build_out/hal_drv/libhal_drv.a(hal_boot2.o)
 .text.hal_boot2_partition_addr
                0x0000000000000000       0xc0 /home/shoaib/bl_iot_sdk/customer_app/sdk_app_helloworld/build_out/hal_drv/libhal_drv.a(hal_boot2.o)
 .text.hal_boot2_partition_addr_active
                0x0000000000000000       0x40 /home/shoaib/bl_iot_sdk/customer_app/sdk_app_helloworld/build_out/hal_drv/libhal_drv.a(hal_boot2.o)
 .text.hal_boot2_partition_addr_inactive
                0x0000000000000000       0x40 /home/shoaib/bl_iot_sdk/customer_app/sdk_app_helloworld/build_out/hal_drv/libhal_drv.a(hal_boot2.o)
 .text.hal_boot2_get_active_partition
                0x0000000000000000        0xa /home/shoaib/bl_iot_sdk/customer_app/sdk_app_helloworld/build_out/hal_drv/libhal_drv.a(hal_boot2.o)
 .text.hal_boot2_get_active_entries
                0x0000000000000000       0x28 /home/shoaib/bl_iot_sdk/customer_app/sdk_app_helloworld/build_out/hal_drv/libhal_drv.a(hal_boot2.o)
 .text.hal_boot2_dump
                0x0000000000000000        0x4 /home/shoaib/bl_iot_sdk/customer_app/sdk_app_helloworld/build_out/hal_drv/libhal_drv.a(hal_boot2.o)
 .text.hal_boot2_init
                0x0000000000000000       0x24 /home/shoaib/bl_iot_sdk/customer_app/sdk_app_helloworld/build_out/hal_drv/libhal_drv.a(hal_boot2.o)
 .rodata.hal_boot2_partition_bus_addr.str1.4
                0x0000000000000000        0x3 /home/shoaib/bl_iot_sdk/customer_app/sdk_app_helloworld/build_out/hal_drv/libhal_drv.a(hal_boot2.o)
 .text          0x0000000000000000        0x0 /home/shoaib/bl_iot_sdk/customer_app/sdk_app_helloworld/build_out/hal_drv/libhal_drv.a(bl_boot2.o)
 .data          0x0000000000000000        0x0 /home/shoaib/bl_iot_sdk/customer_app/sdk_app_helloworld/build_out/hal_drv/libhal_drv.a(bl_boot2.o)
 .bss           0x0000000000000000        0x0 /home/shoaib/bl_iot_sdk/customer_app/sdk_app_helloworld/build_out/hal_drv/libhal_drv.a(bl_boot2.o)
 .text.PtTable_Update_Entry
                0x0000000000000000       0xfc /home/shoaib/bl_iot_sdk/customer_app/sdk_app_helloworld/build_out/hal_drv/libhal_drv.a(bl_boot2.o)
 .text.PtTable_Get_Active_Entries
                0x0000000000000000       0x58 /home/shoaib/bl_iot_sdk/customer_app/sdk_app_helloworld/build_out/hal_drv/libhal_drv.a(bl_boot2.o)
 .debug_info    0x0000000000000000     0x118e /home/shoaib/bl_iot_sdk/customer_app/sdk_app_helloworld/build_out/hal_drv/libhal_drv.a(bl_boot2.o)
 .debug_abbrev  0x0000000000000000      0x26d /home/shoaib/bl_iot_sdk/customer_app/sdk_app_helloworld/build_out/hal_drv/libhal_drv.a(bl_boot2.o)
 .debug_loc     0x0000000000000000      0x2df /home/shoaib/bl_iot_sdk/customer_app/sdk_app_helloworld/build_out/hal_drv/libhal_drv.a(bl_boot2.o)
 .debug_aranges
                0x0000000000000000       0x28 /home/shoaib/bl_iot_sdk/customer_app/sdk_app_helloworld/build_out/hal_drv/libhal_drv.a(bl_boot2.o)
 .debug_ranges  0x0000000000000000       0x18 /home/shoaib/bl_iot_sdk/customer_app/sdk_app_helloworld/build_out/hal_drv/libhal_drv.a(bl_boot2.o)
 .debug_line    0x0000000000000000      0x64c /home/shoaib/bl_iot_sdk/customer_app/sdk_app_helloworld/build_out/hal_drv/libhal_drv.a(bl_boot2.o)
 .debug_str     0x0000000000000000      0xc58 /home/shoaib/bl_iot_sdk/customer_app/sdk_app_helloworld/build_out/hal_drv/libhal_drv.a(bl_boot2.o)
 .comment       0x0000000000000000       0x29 /home/shoaib/bl_iot_sdk/customer_app/sdk_app_helloworld/build_out/hal_drv/libhal_drv.a(bl_boot2.o)
 .debug_frame   0x0000000000000000       0x68 /home/shoaib/bl_iot_sdk/customer_app/sdk_app_helloworld/build_out/hal_drv/libhal_drv.a(bl_boot2.o)
 .riscv.attributes
                0x0000000000000000       0x2b /home/shoaib/bl_iot_sdk/customer_app/sdk_app_helloworld/build_out/hal_drv/libhal_drv.a(bl_boot2.o)
 .text          0x0000000000000000        0x0 /home/shoaib/bl_iot_sdk/customer_app/sdk_app_helloworld/build_out/hal_drv/libhal_drv.a(bl_flash.o)
 .data          0x0000000000000000        0x0 /home/shoaib/bl_iot_sdk/customer_app/sdk_app_helloworld/build_out/hal_drv/libhal_drv.a(bl_flash.o)
 .bss           0x0000000000000000        0x0 /home/shoaib/bl_iot_sdk/customer_app/sdk_app_helloworld/build_out/hal_drv/libhal_drv.a(bl_flash.o)
 .text.bl_flash_erase
                0x0000000000000000       0x30 /home/shoaib/bl_iot_sdk/customer_app/sdk_app_helloworld/build_out/hal_drv/libhal_drv.a(bl_flash.o)
 .text.bl_flash_write
                0x0000000000000000       0x32 /home/shoaib/bl_iot_sdk/customer_app/sdk_app_helloworld/build_out/hal_drv/libhal_drv.a(bl_flash.o)
 .text.bl_flash_read
                0x0000000000000000       0x32 /home/shoaib/bl_iot_sdk/customer_app/sdk_app_helloworld/build_out/hal_drv/libhal_drv.a(bl_flash.o)
 .text.bl_flash_config_update
                0x0000000000000000        0x4 /home/shoaib/bl_iot_sdk/customer_app/sdk_app_helloworld/build_out/hal_drv/libhal_drv.a(bl_flash.o)
 .text.bl_flash_get_flashCfg
                0x0000000000000000        0xa /home/shoaib/bl_iot_sdk/customer_app/sdk_app_helloworld/build_out/hal_drv/libhal_drv.a(bl_flash.o)
 .text.bl_flash_read_byxip
                0x0000000000000000       0x4a /home/shoaib/bl_iot_sdk/customer_app/sdk_app_helloworld/build_out/hal_drv/libhal_drv.a(bl_flash.o)
 .bss.boot2_flashCfg
                0x0000000000000000       0x58 /home/shoaib/bl_iot_sdk/customer_app/sdk_app_helloworld/build_out/hal_drv/libhal_drv.a(bl_flash.o)
 .debug_info    0x0000000000000000     0x13e2 /home/shoaib/bl_iot_sdk/customer_app/sdk_app_helloworld/build_out/hal_drv/libhal_drv.a(bl_flash.o)
 .debug_abbrev  0x0000000000000000      0x2bf /home/shoaib/bl_iot_sdk/customer_app/sdk_app_helloworld/build_out/hal_drv/libhal_drv.a(bl_flash.o)
 .debug_loc     0x0000000000000000      0x295 /home/shoaib/bl_iot_sdk/customer_app/sdk_app_helloworld/build_out/hal_drv/libhal_drv.a(bl_flash.o)
 .debug_aranges
                0x0000000000000000       0x48 /home/shoaib/bl_iot_sdk/customer_app/sdk_app_helloworld/build_out/hal_drv/libhal_drv.a(bl_flash.o)
 .debug_ranges  0x0000000000000000       0x38 /home/shoaib/bl_iot_sdk/customer_app/sdk_app_helloworld/build_out/hal_drv/libhal_drv.a(bl_flash.o)
 .debug_line    0x0000000000000000      0x5e9 /home/shoaib/bl_iot_sdk/customer_app/sdk_app_helloworld/build_out/hal_drv/libhal_drv.a(bl_flash.o)
 .debug_str     0x0000000000000000     0x22a8 /home/shoaib/bl_iot_sdk/customer_app/sdk_app_helloworld/build_out/hal_drv/libhal_drv.a(bl_flash.o)
 .comment       0x0000000000000000       0x29 /home/shoaib/bl_iot_sdk/customer_app/sdk_app_helloworld/build_out/hal_drv/libhal_drv.a(bl_flash.o)
 .debug_frame   0x0000000000000000       0xa8 /home/shoaib/bl_iot_sdk/customer_app/sdk_app_helloworld/build_out/hal_drv/libhal_drv.a(bl_flash.o)
 .riscv.attributes
                0x0000000000000000       0x2b /home/shoaib/bl_iot_sdk/customer_app/sdk_app_helloworld/build_out/hal_drv/libhal_drv.a(bl_flash.o)
 .text          0x0000000000000000        0x0 /home/shoaib/bl_iot_sdk/customer_app/sdk_app_helloworld/build_out/sdk_app_helloworld/libsdk_app_helloworld.a(main.o)
 .data          0x0000000000000000        0x0 /home/shoaib/bl_iot_sdk/customer_app/sdk_app_helloworld/build_out/sdk_app_helloworld/libsdk_app_helloworld.a(main.o)
 .bss           0x0000000000000000        0x0 /home/shoaib/bl_iot_sdk/customer_app/sdk_app_helloworld/build_out/sdk_app_helloworld/libsdk_app_helloworld.a(main.o)
 .text.convert_to_binary
                0x0000000000000000       0x6e /home/shoaib/bl_iot_sdk/customer_app/sdk_app_helloworld/build_out/sdk_app_helloworld/libsdk_app_helloworld.a(main.o)
 .text.task_adc
                0x0000000000000000       0x7a /home/shoaib/bl_iot_sdk/customer_app/sdk_app_helloworld/build_out/sdk_app_helloworld/libsdk_app_helloworld.a(main.o)
 .rodata.convert_to_binary.str1.4
                0x0000000000000000       0x23 /home/shoaib/bl_iot_sdk/customer_app/sdk_app_helloworld/build_out/sdk_app_helloworld/libsdk_app_helloworld.a(main.o)
 .rodata.task_adc.str1.4
                0x0000000000000000       0x59 /home/shoaib/bl_iot_sdk/customer_app/sdk_app_helloworld/build_out/sdk_app_helloworld/libsdk_app_helloworld.a(main.o)
 .text          0x0000000000000000        0x0 /home/shoaib/bl_iot_sdk/customer_app/sdk_app_helloworld/build_out/sdk_app_helloworld/libsdk_app_helloworld.a(led.o)
 .data          0x0000000000000000        0x0 /home/shoaib/bl_iot_sdk/customer_app/sdk_app_helloworld/build_out/sdk_app_helloworld/libsdk_app_helloworld.a(led.o)
 .bss           0x0000000000000000        0x0 /home/shoaib/bl_iot_sdk/customer_app/sdk_app_helloworld/build_out/sdk_app_helloworld/libsdk_app_helloworld.a(led.o)
 .text          0x0000000000000000        0x0 /home/shoaib/bl_iot_sdk/customer_app/sdk_app_helloworld/build_out/bl602/libbl602.a(debug.o)
 .data          0x0000000000000000        0x0 /home/shoaib/bl_iot_sdk/customer_app/sdk_app_helloworld/build_out/bl602/libbl602.a(debug.o)
 .bss           0x0000000000000000        0x0 /home/shoaib/bl_iot_sdk/customer_app/sdk_app_helloworld/build_out/bl602/libbl602.a(debug.o)
 .text.bl_putchar
                0x0000000000000000       0x1a /home/shoaib/bl_iot_sdk/customer_app/sdk_app_helloworld/build_out/bl602/libbl602.a(debug.o)
 .text.sprintf  0x0000000000000000       0x26 /home/shoaib/bl_iot_sdk/customer_app/sdk_app_helloworld/build_out/bl602/libbl602.a(debug.o)
 .text.snprintf
                0x0000000000000000       0x20 /home/shoaib/bl_iot_sdk/customer_app/sdk_app_helloworld/build_out/bl602/libbl602.a(debug.o)
 .text.vMainUARTPrintString
                0x0000000000000000        0x8 /home/shoaib/bl_iot_sdk/customer_app/sdk_app_helloworld/build_out/bl602/libbl602.a(debug.o)
 .text          0x0000000000000000        0x0 /home/shoaib/bl_iot_sdk/customer_app/sdk_app_helloworld/build_out/bl602_std/libbl602_std.a(softcrc.o)
 .data          0x0000000000000000        0x0 /home/shoaib/bl_iot_sdk/customer_app/sdk_app_helloworld/build_out/bl602_std/libbl602_std.a(softcrc.o)
 .bss           0x0000000000000000        0x0 /home/shoaib/bl_iot_sdk/customer_app/sdk_app_helloworld/build_out/bl602_std/libbl602_std.a(softcrc.o)
 .text.BFLB_Soft_CRC16
                0x0000000000000000       0x40 /home/shoaib/bl_iot_sdk/customer_app/sdk_app_helloworld/build_out/bl602_std/libbl602_std.a(softcrc.o)
 .text.BFLB_Soft_CRC32_Table
                0x0000000000000000       0x2e /home/shoaib/bl_iot_sdk/customer_app/sdk_app_helloworld/build_out/bl602_std/libbl602_std.a(softcrc.o)
 .tcm_code      0x0000000000000000       0x34 /home/shoaib/bl_iot_sdk/customer_app/sdk_app_helloworld/build_out/bl602_std/libbl602_std.a(softcrc.o)
 .rodata.chCRCHTalbe
                0x0000000000000000      0x100 /home/shoaib/bl_iot_sdk/customer_app/sdk_app_helloworld/build_out/bl602_std/libbl602_std.a(softcrc.o)
 .rodata.chCRCLTalbe
                0x0000000000000000      0x100 /home/shoaib/bl_iot_sdk/customer_app/sdk_app_helloworld/build_out/bl602_std/libbl602_std.a(softcrc.o)
 .rodata.crc32Tab
                0x0000000000000000      0x400 /home/shoaib/bl_iot_sdk/customer_app/sdk_app_helloworld/build_out/bl602_std/libbl602_std.a(softcrc.o)
 .debug_info    0x0000000000000000      0xaea /home/shoaib/bl_iot_sdk/customer_app/sdk_app_helloworld/build_out/bl602_std/libbl602_std.a(softcrc.o)
 .debug_abbrev  0x0000000000000000      0x246 /home/shoaib/bl_iot_sdk/customer_app/sdk_app_helloworld/build_out/bl602_std/libbl602_std.a(softcrc.o)
 .debug_loc     0x0000000000000000      0x240 /home/shoaib/bl_iot_sdk/customer_app/sdk_app_helloworld/build_out/bl602_std/libbl602_std.a(softcrc.o)
 .debug_aranges
                0x0000000000000000       0x30 /home/shoaib/bl_iot_sdk/customer_app/sdk_app_helloworld/build_out/bl602_std/libbl602_std.a(softcrc.o)
 .debug_ranges  0x0000000000000000       0x20 /home/shoaib/bl_iot_sdk/customer_app/sdk_app_helloworld/build_out/bl602_std/libbl602_std.a(softcrc.o)
 .debug_line    0x0000000000000000      0x40f /home/shoaib/bl_iot_sdk/customer_app/sdk_app_helloworld/build_out/bl602_std/libbl602_std.a(softcrc.o)
 .debug_str     0x0000000000000000      0x66c /home/shoaib/bl_iot_sdk/customer_app/sdk_app_helloworld/build_out/bl602_std/libbl602_std.a(softcrc.o)
 .comment       0x0000000000000000       0x29 /home/shoaib/bl_iot_sdk/customer_app/sdk_app_helloworld/build_out/bl602_std/libbl602_std.a(softcrc.o)
 .debug_frame   0x0000000000000000       0x40 /home/shoaib/bl_iot_sdk/customer_app/sdk_app_helloworld/build_out/bl602_std/libbl602_std.a(softcrc.o)
 .riscv.attributes
                0x0000000000000000       0x2b /home/shoaib/bl_iot_sdk/customer_app/sdk_app_helloworld/build_out/bl602_std/libbl602_std.a(softcrc.o)
 .text          0x0000000000000000        0x0 /home/shoaib/bl_iot_sdk/customer_app/sdk_app_helloworld/build_out/freertos_riscv_ram/libfreertos_riscv_ram.a(tasks.o)
 .data          0x0000000000000000        0x0 /home/shoaib/bl_iot_sdk/customer_app/sdk_app_helloworld/build_out/freertos_riscv_ram/libfreertos_riscv_ram.a(tasks.o)
 .bss           0x0000000000000000        0x0 /home/shoaib/bl_iot_sdk/customer_app/sdk_app_helloworld/build_out/freertos_riscv_ram/libfreertos_riscv_ram.a(tasks.o)
 .text.xTaskCreate
                0x0000000000000000       0x90 /home/shoaib/bl_iot_sdk/customer_app/sdk_app_helloworld/build_out/freertos_riscv_ram/libfreertos_riscv_ram.a(tasks.o)
 .text.vTaskDelete
                0x0000000000000000      0x152 /home/shoaib/bl_iot_sdk/customer_app/sdk_app_helloworld/build_out/freertos_riscv_ram/libfreertos_riscv_ram.a(tasks.o)
 .text.eTaskGetState
                0x0000000000000000       0xda /home/shoaib/bl_iot_sdk/customer_app/sdk_app_helloworld/build_out/freertos_riscv_ram/libfreertos_riscv_ram.a(tasks.o)
 .text.uxTaskPriorityGet
                0x0000000000000000       0x56 /home/shoaib/bl_iot_sdk/customer_app/sdk_app_helloworld/build_out/freertos_riscv_ram/libfreertos_riscv_ram.a(tasks.o)
 .text.uxTaskPriorityGetFromISR
                0x0000000000000000       0x12 /home/shoaib/bl_iot_sdk/customer_app/sdk_app_helloworld/build_out/freertos_riscv_ram/libfreertos_riscv_ram.a(tasks.o)
 .text.vTaskPrioritySet
                0x0000000000000000      0x144 /home/shoaib/bl_iot_sdk/customer_app/sdk_app_helloworld/build_out/freertos_riscv_ram/libfreertos_riscv_ram.a(tasks.o)
 .text.vTaskResume
                0x0000000000000000       0xe4 /home/shoaib/bl_iot_sdk/customer_app/sdk_app_helloworld/build_out/freertos_riscv_ram/libfreertos_riscv_ram.a(tasks.o)
 .text.xTaskResumeFromISR
                0x0000000000000000       0xd8 /home/shoaib/bl_iot_sdk/customer_app/sdk_app_helloworld/build_out/freertos_riscv_ram/libfreertos_riscv_ram.a(tasks.o)
 .text.vTaskEndScheduler
                0x0000000000000000       0x14 /home/shoaib/bl_iot_sdk/customer_app/sdk_app_helloworld/build_out/freertos_riscv_ram/libfreertos_riscv_ram.a(tasks.o)
 .text.xTaskGetTickCount2
                0x0000000000000000       0x18 /home/shoaib/bl_iot_sdk/customer_app/sdk_app_helloworld/build_out/freertos_riscv_ram/libfreertos_riscv_ram.a(tasks.o)
 .text.xTaskGetTickCountFromISR
                0x0000000000000000        0xa /home/shoaib/bl_iot_sdk/customer_app/sdk_app_helloworld/build_out/freertos_riscv_ram/libfreertos_riscv_ram.a(tasks.o)
 .text.uxTaskGetNumberOfTasks
                0x0000000000000000        0xa /home/shoaib/bl_iot_sdk/customer_app/sdk_app_helloworld/build_out/freertos_riscv_ram/libfreertos_riscv_ram.a(tasks.o)
 .text.pcTaskGetName
                0x0000000000000000       0x2c /home/shoaib/bl_iot_sdk/customer_app/sdk_app_helloworld/build_out/freertos_riscv_ram/libfreertos_riscv_ram.a(tasks.o)
 .text.vTaskStepTickSafe
                0x0000000000000000      0x102 /home/shoaib/bl_iot_sdk/customer_app/sdk_app_helloworld/build_out/freertos_riscv_ram/libfreertos_riscv_ram.a(tasks.o)
 .text.vTaskDelayUntil
                0x0000000000000000       0x8e /home/shoaib/bl_iot_sdk/customer_app/sdk_app_helloworld/build_out/freertos_riscv_ram/libfreertos_riscv_ram.a(tasks.o)
 .text.vTaskSuspend
                0x0000000000000000      0x190 /home/shoaib/bl_iot_sdk/customer_app/sdk_app_helloworld/build_out/freertos_riscv_ram/libfreertos_riscv_ram.a(tasks.o)
 .text.vTaskPlaceOnUnorderedEventList
                0x0000000000000000       0x66 /home/shoaib/bl_iot_sdk/customer_app/sdk_app_helloworld/build_out/freertos_riscv_ram/libfreertos_riscv_ram.a(tasks.o)
 .text.vTaskRemoveFromUnorderedEventList
                0x0000000000000000       0xb6 /home/shoaib/bl_iot_sdk/customer_app/sdk_app_helloworld/build_out/freertos_riscv_ram/libfreertos_riscv_ram.a(tasks.o)
 .text.vTaskSetTimeOutState
                0x0000000000000000       0x6c /home/shoaib/bl_iot_sdk/customer_app/sdk_app_helloworld/build_out/freertos_riscv_ram/libfreertos_riscv_ram.a(tasks.o)
 .text.uxTaskGetTaskNumber
                0x0000000000000000        0xa /home/shoaib/bl_iot_sdk/customer_app/sdk_app_helloworld/build_out/freertos_riscv_ram/libfreertos_riscv_ram.a(tasks.o)
 .text.vTaskSetTaskNumber
                0x0000000000000000        0x6 /home/shoaib/bl_iot_sdk/customer_app/sdk_app_helloworld/build_out/freertos_riscv_ram/libfreertos_riscv_ram.a(tasks.o)
 .text.vTaskGetInfo
                0x0000000000000000       0xde /home/shoaib/bl_iot_sdk/customer_app/sdk_app_helloworld/build_out/freertos_riscv_ram/libfreertos_riscv_ram.a(tasks.o)
 .text.prvListTasksWithinSingleList.part.11
                0x0000000000000000       0x92 /home/shoaib/bl_iot_sdk/customer_app/sdk_app_helloworld/build_out/freertos_riscv_ram/libfreertos_riscv_ram.a(tasks.o)
 .text.uxTaskGetSystemState
                0x0000000000000000      0x12c /home/shoaib/bl_iot_sdk/customer_app/sdk_app_helloworld/build_out/freertos_riscv_ram/libfreertos_riscv_ram.a(tasks.o)
 .text.uxTaskGetStackHighWaterMark
                0x0000000000000000       0x46 /home/shoaib/bl_iot_sdk/customer_app/sdk_app_helloworld/build_out/freertos_riscv_ram/libfreertos_riscv_ram.a(tasks.o)
 .text.xTaskGetCurrentTaskHandle
                0x0000000000000000        0xa /home/shoaib/bl_iot_sdk/customer_app/sdk_app_helloworld/build_out/freertos_riscv_ram/libfreertos_riscv_ram.a(tasks.o)
 .text.xTaskPriorityInherit
                0x0000000000000000       0xea /home/shoaib/bl_iot_sdk/customer_app/sdk_app_helloworld/build_out/freertos_riscv_ram/libfreertos_riscv_ram.a(tasks.o)
 .text.vTaskPriorityDisinheritAfterTimeout
                0x0000000000000000      0x116 /home/shoaib/bl_iot_sdk/customer_app/sdk_app_helloworld/build_out/freertos_riscv_ram/libfreertos_riscv_ram.a(tasks.o)
 .text.vTaskList
                0x0000000000000000      0x11a /home/shoaib/bl_iot_sdk/customer_app/sdk_app_helloworld/build_out/freertos_riscv_ram/libfreertos_riscv_ram.a(tasks.o)
 .text.uxTaskResetEventItemValue
                0x0000000000000000       0x1c /home/shoaib/bl_iot_sdk/customer_app/sdk_app_helloworld/build_out/freertos_riscv_ram/libfreertos_riscv_ram.a(tasks.o)
 .text.pvTaskIncrementMutexHeldCount
                0x0000000000000000       0x18 /home/shoaib/bl_iot_sdk/customer_app/sdk_app_helloworld/build_out/freertos_riscv_ram/libfreertos_riscv_ram.a(tasks.o)
 .text.ulTaskNotifyTake
                0x0000000000000000       0xba /home/shoaib/bl_iot_sdk/customer_app/sdk_app_helloworld/build_out/freertos_riscv_ram/libfreertos_riscv_ram.a(tasks.o)
 .text.xTaskNotifyWait
                0x0000000000000000       0xf4 /home/shoaib/bl_iot_sdk/customer_app/sdk_app_helloworld/build_out/freertos_riscv_ram/libfreertos_riscv_ram.a(tasks.o)
 .text.xTaskGenericNotify
                0x0000000000000000      0x14a /home/shoaib/bl_iot_sdk/customer_app/sdk_app_helloworld/build_out/freertos_riscv_ram/libfreertos_riscv_ram.a(tasks.o)
 .rodata.xTaskGenericNotify
                0x0000000000000000       0x14 /home/shoaib/bl_iot_sdk/customer_app/sdk_app_helloworld/build_out/freertos_riscv_ram/libfreertos_riscv_ram.a(tasks.o)
 .text.xTaskGenericNotifyFromISR
                0x0000000000000000      0x134 /home/shoaib/bl_iot_sdk/customer_app/sdk_app_helloworld/build_out/freertos_riscv_ram/libfreertos_riscv_ram.a(tasks.o)
 .rodata.xTaskGenericNotifyFromISR
                0x0000000000000000       0x14 /home/shoaib/bl_iot_sdk/customer_app/sdk_app_helloworld/build_out/freertos_riscv_ram/libfreertos_riscv_ram.a(tasks.o)
 .text.vTaskNotifyGiveFromISR
                0x0000000000000000       0xd4 /home/shoaib/bl_iot_sdk/customer_app/sdk_app_helloworld/build_out/freertos_riscv_ram/libfreertos_riscv_ram.a(tasks.o)
 .text.xTaskNotifyStateClear
                0x0000000000000000       0x66 /home/shoaib/bl_iot_sdk/customer_app/sdk_app_helloworld/build_out/freertos_riscv_ram/libfreertos_riscv_ram.a(tasks.o)
 .rodata.vTaskList.str1.4
                0x0000000000000000       0x12 /home/shoaib/bl_iot_sdk/customer_app/sdk_app_helloworld/build_out/freertos_riscv_ram/libfreertos_riscv_ram.a(tasks.o)
 .sdata2.CSWTCH.175
                0x0000000000000000        0x5 /home/shoaib/bl_iot_sdk/customer_app/sdk_app_helloworld/build_out/freertos_riscv_ram/libfreertos_riscv_ram.a(tasks.o)
 .text          0x0000000000000000        0x0 /home/shoaib/bl_iot_sdk/customer_app/sdk_app_helloworld/build_out/freertos_riscv_ram/libfreertos_riscv_ram.a(timers.o)
 .data          0x0000000000000000        0x0 /home/shoaib/bl_iot_sdk/customer_app/sdk_app_helloworld/build_out/freertos_riscv_ram/libfreertos_riscv_ram.a(timers.o)
 .bss           0x0000000000000000        0x0 /home/shoaib/bl_iot_sdk/customer_app/sdk_app_helloworld/build_out/freertos_riscv_ram/libfreertos_riscv_ram.a(timers.o)
 .text.xTimerCreate
                0x0000000000000000       0x80 /home/shoaib/bl_iot_sdk/customer_app/sdk_app_helloworld/build_out/freertos_riscv_ram/libfreertos_riscv_ram.a(timers.o)
 .text.xTimerCreateStatic
                0x0000000000000000       0x96 /home/shoaib/bl_iot_sdk/customer_app/sdk_app_helloworld/build_out/freertos_riscv_ram/libfreertos_riscv_ram.a(timers.o)
 .text.xTimerGetTimerDaemonTaskHandle
                0x0000000000000000       0x2c /home/shoaib/bl_iot_sdk/customer_app/sdk_app_helloworld/build_out/freertos_riscv_ram/libfreertos_riscv_ram.a(timers.o)
 .text.xTimerGetPeriod
                0x0000000000000000       0x1e /home/shoaib/bl_iot_sdk/customer_app/sdk_app_helloworld/build_out/freertos_riscv_ram/libfreertos_riscv_ram.a(timers.o)
 .text.vTimerSetReloadMode
                0x0000000000000000       0x56 /home/shoaib/bl_iot_sdk/customer_app/sdk_app_helloworld/build_out/freertos_riscv_ram/libfreertos_riscv_ram.a(timers.o)
 .text.xTimerGetExpiryTime
                0x0000000000000000       0x1e /home/shoaib/bl_iot_sdk/customer_app/sdk_app_helloworld/build_out/freertos_riscv_ram/libfreertos_riscv_ram.a(timers.o)
 .text.pcTimerGetName
                0x0000000000000000       0x1e /home/shoaib/bl_iot_sdk/customer_app/sdk_app_helloworld/build_out/freertos_riscv_ram/libfreertos_riscv_ram.a(timers.o)
 .text.xTimerIsTimerActive
                0x0000000000000000       0x34 /home/shoaib/bl_iot_sdk/customer_app/sdk_app_helloworld/build_out/freertos_riscv_ram/libfreertos_riscv_ram.a(timers.o)
 .text.pvTimerGetTimerID
                0x0000000000000000       0x30 /home/shoaib/bl_iot_sdk/customer_app/sdk_app_helloworld/build_out/freertos_riscv_ram/libfreertos_riscv_ram.a(timers.o)
 .text.vTimerSetTimerID
                0x0000000000000000       0x32 /home/shoaib/bl_iot_sdk/customer_app/sdk_app_helloworld/build_out/freertos_riscv_ram/libfreertos_riscv_ram.a(timers.o)
 .text.xTimerPendFunctionCallFromISR
                0x0000000000000000       0x2c /home/shoaib/bl_iot_sdk/customer_app/sdk_app_helloworld/build_out/freertos_riscv_ram/libfreertos_riscv_ram.a(timers.o)
 .text.xTimerPendFunctionCall
                0x0000000000000000       0x56 /home/shoaib/bl_iot_sdk/customer_app/sdk_app_helloworld/build_out/freertos_riscv_ram/libfreertos_riscv_ram.a(timers.o)
 .text.uxTimerGetTimerNumber
                0x0000000000000000        0x4 /home/shoaib/bl_iot_sdk/customer_app/sdk_app_helloworld/build_out/freertos_riscv_ram/libfreertos_riscv_ram.a(timers.o)
 .text.vTimerSetTimerNumber
                0x0000000000000000        0x4 /home/shoaib/bl_iot_sdk/customer_app/sdk_app_helloworld/build_out/freertos_riscv_ram/libfreertos_riscv_ram.a(timers.o)
 .text          0x0000000000000000        0x0 /home/shoaib/bl_iot_sdk/customer_app/sdk_app_helloworld/build_out/freertos_riscv_ram/libfreertos_riscv_ram.a(port.o)
 .data          0x0000000000000000        0x0 /home/shoaib/bl_iot_sdk/customer_app/sdk_app_helloworld/build_out/freertos_riscv_ram/libfreertos_riscv_ram.a(port.o)
 .bss           0x0000000000000000        0x0 /home/shoaib/bl_iot_sdk/customer_app/sdk_app_helloworld/build_out/freertos_riscv_ram/libfreertos_riscv_ram.a(port.o)
 .text.vPortEndScheduler
                0x0000000000000000        0x2 /home/shoaib/bl_iot_sdk/customer_app/sdk_app_helloworld/build_out/freertos_riscv_ram/libfreertos_riscv_ram.a(port.o)
 .data          0x0000000000000000        0x0 /home/shoaib/bl_iot_sdk/customer_app/sdk_app_helloworld/build_out/freertos_riscv_ram/libfreertos_riscv_ram.a(portASM.o)
 .bss           0x0000000000000000        0x0 /home/shoaib/bl_iot_sdk/customer_app/sdk_app_helloworld/build_out/freertos_riscv_ram/libfreertos_riscv_ram.a(portASM.o)
 .text          0x0000000000000000        0x0 /home/shoaib/bl_iot_sdk/customer_app/sdk_app_helloworld/build_out/freertos_riscv_ram/libfreertos_riscv_ram.a(heap_5.o)
 .data          0x0000000000000000        0x0 /home/shoaib/bl_iot_sdk/customer_app/sdk_app_helloworld/build_out/freertos_riscv_ram/libfreertos_riscv_ram.a(heap_5.o)
 .bss           0x0000000000000000        0x0 /home/shoaib/bl_iot_sdk/customer_app/sdk_app_helloworld/build_out/freertos_riscv_ram/libfreertos_riscv_ram.a(heap_5.o)
 .text.pvPortMalloc
                0x0000000000000000      0x100 /home/shoaib/bl_iot_sdk/customer_app/sdk_app_helloworld/build_out/freertos_riscv_ram/libfreertos_riscv_ram.a(heap_5.o)
 .text.pvPortCalloc
                0x0000000000000000       0x32 /home/shoaib/bl_iot_sdk/customer_app/sdk_app_helloworld/build_out/freertos_riscv_ram/libfreertos_riscv_ram.a(heap_5.o)
 .text.xPortGetFreeHeapSize
                0x0000000000000000        0xa /home/shoaib/bl_iot_sdk/customer_app/sdk_app_helloworld/build_out/freertos_riscv_ram/libfreertos_riscv_ram.a(heap_5.o)
 .text.xPortGetMinimumEverFreeHeapSize
                0x0000000000000000        0xa /home/shoaib/bl_iot_sdk/customer_app/sdk_app_helloworld/build_out/freertos_riscv_ram/libfreertos_riscv_ram.a(heap_5.o)
 .text          0x0000000000000000        0x0 /home/shoaib/bl_iot_sdk/customer_app/sdk_app_helloworld/build_out/freertos_riscv_ram/libfreertos_riscv_ram.a(list.o)
 .data          0x0000000000000000        0x0 /home/shoaib/bl_iot_sdk/customer_app/sdk_app_helloworld/build_out/freertos_riscv_ram/libfreertos_riscv_ram.a(list.o)
 .bss           0x0000000000000000        0x0 /home/shoaib/bl_iot_sdk/customer_app/sdk_app_helloworld/build_out/freertos_riscv_ram/libfreertos_riscv_ram.a(list.o)
 .text          0x0000000000000000        0x0 /home/shoaib/bl_iot_sdk/customer_app/sdk_app_helloworld/build_out/freertos_riscv_ram/libfreertos_riscv_ram.a(queue.o)
 .data          0x0000000000000000        0x0 /home/shoaib/bl_iot_sdk/customer_app/sdk_app_helloworld/build_out/freertos_riscv_ram/libfreertos_riscv_ram.a(queue.o)
 .bss           0x0000000000000000        0x0 /home/shoaib/bl_iot_sdk/customer_app/sdk_app_helloworld/build_out/freertos_riscv_ram/libfreertos_riscv_ram.a(queue.o)
 .text.xQueueGenericCreate
                0x0000000000000000       0x90 /home/shoaib/bl_iot_sdk/customer_app/sdk_app_helloworld/build_out/freertos_riscv_ram/libfreertos_riscv_ram.a(queue.o)
 .text.xQueueCreateCountingSemaphoreStatic
                0x0000000000000000       0x4e /home/shoaib/bl_iot_sdk/customer_app/sdk_app_helloworld/build_out/freertos_riscv_ram/libfreertos_riscv_ram.a(queue.o)
 .text.xQueueCreateCountingSemaphore
                0x0000000000000000       0x44 /home/shoaib/bl_iot_sdk/customer_app/sdk_app_helloworld/build_out/freertos_riscv_ram/libfreertos_riscv_ram.a(queue.o)
 .text.xQueueCreateMutexStatic
                0x0000000000000000       0x40 /home/shoaib/bl_iot_sdk/customer_app/sdk_app_helloworld/build_out/freertos_riscv_ram/libfreertos_riscv_ram.a(queue.o)
 .text.xQueueGiveMutexRecursive
                0x0000000000000000       0x54 /home/shoaib/bl_iot_sdk/customer_app/sdk_app_helloworld/build_out/freertos_riscv_ram/libfreertos_riscv_ram.a(queue.o)
 .text.xQueueCreateMutex
                0x0000000000000000       0x3c /home/shoaib/bl_iot_sdk/customer_app/sdk_app_helloworld/build_out/freertos_riscv_ram/libfreertos_riscv_ram.a(queue.o)
 .text.xQueueGiveFromISR
                0x0000000000000000       0x8a /home/shoaib/bl_iot_sdk/customer_app/sdk_app_helloworld/build_out/freertos_riscv_ram/libfreertos_riscv_ram.a(queue.o)
 .text.xQueueSemaphoreTake
                0x0000000000000000      0x218 /home/shoaib/bl_iot_sdk/customer_app/sdk_app_helloworld/build_out/freertos_riscv_ram/libfreertos_riscv_ram.a(queue.o)
 .text.xQueueTakeMutexRecursive
                0x0000000000000000       0x5c /home/shoaib/bl_iot_sdk/customer_app/sdk_app_helloworld/build_out/freertos_riscv_ram/libfreertos_riscv_ram.a(queue.o)
 .text.xQueuePeek
                0x0000000000000000      0x1a4 /home/shoaib/bl_iot_sdk/customer_app/sdk_app_helloworld/build_out/freertos_riscv_ram/libfreertos_riscv_ram.a(queue.o)
 .text.xQueueReceiveFromISR
                0x0000000000000000       0xa2 /home/shoaib/bl_iot_sdk/customer_app/sdk_app_helloworld/build_out/freertos_riscv_ram/libfreertos_riscv_ram.a(queue.o)
 .text.xQueuePeekFromISR
                0x0000000000000000       0x70 /home/shoaib/bl_iot_sdk/customer_app/sdk_app_helloworld/build_out/freertos_riscv_ram/libfreertos_riscv_ram.a(queue.o)
 .text.uxQueueMessagesWaiting
                0x0000000000000000       0x30 /home/shoaib/bl_iot_sdk/customer_app/sdk_app_helloworld/build_out/freertos_riscv_ram/libfreertos_riscv_ram.a(queue.o)
 .text.uxQueueSpacesAvailable
                0x0000000000000000       0x38 /home/shoaib/bl_iot_sdk/customer_app/sdk_app_helloworld/build_out/freertos_riscv_ram/libfreertos_riscv_ram.a(queue.o)
 .text.uxQueueMessagesWaitingFromISR
                0x0000000000000000       0x1e /home/shoaib/bl_iot_sdk/customer_app/sdk_app_helloworld/build_out/freertos_riscv_ram/libfreertos_riscv_ram.a(queue.o)
 .text.vQueueDelete
                0x0000000000000000       0x92 /home/shoaib/bl_iot_sdk/customer_app/sdk_app_helloworld/build_out/freertos_riscv_ram/libfreertos_riscv_ram.a(queue.o)
 .text.uxQueueGetQueueNumber
                0x0000000000000000        0x4 /home/shoaib/bl_iot_sdk/customer_app/sdk_app_helloworld/build_out/freertos_riscv_ram/libfreertos_riscv_ram.a(queue.o)
 .text.vQueueSetQueueNumber
                0x0000000000000000        0x4 /home/shoaib/bl_iot_sdk/customer_app/sdk_app_helloworld/build_out/freertos_riscv_ram/libfreertos_riscv_ram.a(queue.o)
 .text.ucQueueGetQueueType
                0x0000000000000000        0x6 /home/shoaib/bl_iot_sdk/customer_app/sdk_app_helloworld/build_out/freertos_riscv_ram/libfreertos_riscv_ram.a(queue.o)
 .text.xQueueIsQueueEmptyFromISR
                0x0000000000000000       0x26 /home/shoaib/bl_iot_sdk/customer_app/sdk_app_helloworld/build_out/freertos_riscv_ram/libfreertos_riscv_ram.a(queue.o)
 .text.xQueueIsQueueFullFromISR
                0x0000000000000000       0x2e /home/shoaib/bl_iot_sdk/customer_app/sdk_app_helloworld/build_out/freertos_riscv_ram/libfreertos_riscv_ram.a(queue.o)
 .text.pcQueueGetName
                0x0000000000000000       0x2a /home/shoaib/bl_iot_sdk/customer_app/sdk_app_helloworld/build_out/freertos_riscv_ram/libfreertos_riscv_ram.a(queue.o)
 .text.vQueueUnregisterQueue
                0x0000000000000000       0x2e /home/shoaib/bl_iot_sdk/customer_app/sdk_app_helloworld/build_out/freertos_riscv_ram/libfreertos_riscv_ram.a(queue.o)
 .text          0x0000000000000000        0x0 /home/shoaib/bl_iot_sdk/customer_app/sdk_app_helloworld/build_out/hal_drv/libhal_drv.a(bl_uart.o)
 .data          0x0000000000000000        0x0 /home/shoaib/bl_iot_sdk/customer_app/sdk_app_helloworld/build_out/hal_drv/libhal_drv.a(bl_uart.o)
 .bss           0x0000000000000000        0x0 /home/shoaib/bl_iot_sdk/customer_app/sdk_app_helloworld/build_out/hal_drv/libhal_drv.a(bl_uart.o)
 .text.uart_generic_notify_handler
                0x0000000000000000       0xf2 /home/shoaib/bl_iot_sdk/customer_app/sdk_app_helloworld/build_out/hal_drv/libhal_drv.a(bl_uart.o)
 .text.UART0_IRQHandler
                0x0000000000000000        0xa /home/shoaib/bl_iot_sdk/customer_app/sdk_app_helloworld/build_out/hal_drv/libhal_drv.a(bl_uart.o)
 .text.UART1_IRQHandler
                0x0000000000000000        0xa /home/shoaib/bl_iot_sdk/customer_app/sdk_app_helloworld/build_out/hal_drv/libhal_drv.a(bl_uart.o)
 .text.bl_uart_data_recv
                0x0000000000000000       0x34 /home/shoaib/bl_iot_sdk/customer_app/sdk_app_helloworld/build_out/hal_drv/libhal_drv.a(bl_uart.o)
 .text.bl_uart_int_rx_enable
                0x0000000000000000       0x46 /home/shoaib/bl_iot_sdk/customer_app/sdk_app_helloworld/build_out/hal_drv/libhal_drv.a(bl_uart.o)
 .text.bl_uart_int_rx_disable
                0x0000000000000000       0x3a /home/shoaib/bl_iot_sdk/customer_app/sdk_app_helloworld/build_out/hal_drv/libhal_drv.a(bl_uart.o)
 .text.bl_uart_int_tx_enable
                0x0000000000000000       0x18 /home/shoaib/bl_iot_sdk/customer_app/sdk_app_helloworld/build_out/hal_drv/libhal_drv.a(bl_uart.o)
 .text.bl_uart_int_tx_disable
                0x0000000000000000       0x18 /home/shoaib/bl_iot_sdk/customer_app/sdk_app_helloworld/build_out/hal_drv/libhal_drv.a(bl_uart.o)
 .text.bl_uart_flush
                0x0000000000000000       0x28 /home/shoaib/bl_iot_sdk/customer_app/sdk_app_helloworld/build_out/hal_drv/libhal_drv.a(bl_uart.o)
 .text.bl_uart_getdefconfig
                0x0000000000000000        0x8 /home/shoaib/bl_iot_sdk/customer_app/sdk_app_helloworld/build_out/hal_drv/libhal_drv.a(bl_uart.o)
 .text.bl_uart_setconfig
                0x0000000000000000       0x66 /home/shoaib/bl_iot_sdk/customer_app/sdk_app_helloworld/build_out/hal_drv/libhal_drv.a(bl_uart.o)
 .text.bl_uart_setbaud
                0x0000000000000000        0xa /home/shoaib/bl_iot_sdk/customer_app/sdk_app_helloworld/build_out/hal_drv/libhal_drv.a(bl_uart.o)
 .text.bl_uart_int_enable
                0x0000000000000000       0x76 /home/shoaib/bl_iot_sdk/customer_app/sdk_app_helloworld/build_out/hal_drv/libhal_drv.a(bl_uart.o)
 .text.bl_uart_int_disable
                0x0000000000000000       0x76 /home/shoaib/bl_iot_sdk/customer_app/sdk_app_helloworld/build_out/hal_drv/libhal_drv.a(bl_uart.o)
 .text.bl_uart_int_rx_notify_register
                0x0000000000000000       0x20 /home/shoaib/bl_iot_sdk/customer_app/sdk_app_helloworld/build_out/hal_drv/libhal_drv.a(bl_uart.o)
 .text.bl_uart_int_tx_notify_register
                0x0000000000000000       0x20 /home/shoaib/bl_iot_sdk/customer_app/sdk_app_helloworld/build_out/hal_drv/libhal_drv.a(bl_uart.o)
 .text.bl_uart_int_rx_notify_unregister
                0x0000000000000000       0x24 /home/shoaib/bl_iot_sdk/customer_app/sdk_app_helloworld/build_out/hal_drv/libhal_drv.a(bl_uart.o)
 .text.bl_uart_int_tx_notify_unregister
                0x0000000000000000       0x24 /home/shoaib/bl_iot_sdk/customer_app/sdk_app_helloworld/build_out/hal_drv/libhal_drv.a(bl_uart.o)
 .bss.g_uart_notify_arg
                0x0000000000000000       0x20 /home/shoaib/bl_iot_sdk/customer_app/sdk_app_helloworld/build_out/hal_drv/libhal_drv.a(bl_uart.o)
 .text          0x0000000000000000        0x0 /home/shoaib/bl_iot_sdk/customer_app/sdk_app_helloworld/build_out/hal_drv/libhal_drv.a(bl_sys.o)
 .data          0x0000000000000000        0x0 /home/shoaib/bl_iot_sdk/customer_app/sdk_app_helloworld/build_out/hal_drv/libhal_drv.a(bl_sys.o)
 .bss           0x0000000000000000        0x0 /home/shoaib/bl_iot_sdk/customer_app/sdk_app_helloworld/build_out/hal_drv/libhal_drv.a(bl_sys.o)
 .text.bl_sys_logall_enable
                0x0000000000000000        0xe /home/shoaib/bl_iot_sdk/customer_app/sdk_app_helloworld/build_out/hal_drv/libhal_drv.a(bl_sys.o)
 .text.bl_sys_logall_disable
                0x0000000000000000        0xc /home/shoaib/bl_iot_sdk/customer_app/sdk_app_helloworld/build_out/hal_drv/libhal_drv.a(bl_sys.o)
 .text.bl_sys_mfg_config
                0x0000000000000000       0x12 /home/shoaib/bl_iot_sdk/customer_app/sdk_app_helloworld/build_out/hal_drv/libhal_drv.a(bl_sys.o)
 .text.bl_sys_reset_por
                0x0000000000000000       0x12 /home/shoaib/bl_iot_sdk/customer_app/sdk_app_helloworld/build_out/hal_drv/libhal_drv.a(bl_sys.o)
 .text.bl_sys_reset_system
                0x0000000000000000       0x12 /home/shoaib/bl_iot_sdk/customer_app/sdk_app_helloworld/build_out/hal_drv/libhal_drv.a(bl_sys.o)
 .text.bl_sys_isxipaddr
                0x0000000000000000       0x18 /home/shoaib/bl_iot_sdk/customer_app/sdk_app_helloworld/build_out/hal_drv/libhal_drv.a(bl_sys.o)
 .text.bl_sys_em_config
                0x0000000000000000       0x2e /home/shoaib/bl_iot_sdk/customer_app/sdk_app_helloworld/build_out/hal_drv/libhal_drv.a(bl_sys.o)
 .text.bl_sys_early_init
                0x0000000000000000       0x22 /home/shoaib/bl_iot_sdk/customer_app/sdk_app_helloworld/build_out/hal_drv/libhal_drv.a(bl_sys.o)
 .text.bl_sys_init
                0x0000000000000000       0x14 /home/shoaib/bl_iot_sdk/customer_app/sdk_app_helloworld/build_out/hal_drv/libhal_drv.a(bl_sys.o)
 .text          0x0000000000000000        0x0 /home/shoaib/bl_iot_sdk/customer_app/sdk_app_helloworld/build_out/hal_drv/libhal_drv.a(bl_irq.o)
 .data          0x0000000000000000        0x0 /home/shoaib/bl_iot_sdk/customer_app/sdk_app_helloworld/build_out/hal_drv/libhal_drv.a(bl_irq.o)
 .bss           0x0000000000000000        0x0 /home/shoaib/bl_iot_sdk/customer_app/sdk_app_helloworld/build_out/hal_drv/libhal_drv.a(bl_irq.o)
 .text.bl_irq_enable
                0x0000000000000000       0x12 /home/shoaib/bl_iot_sdk/customer_app/sdk_app_helloworld/build_out/hal_drv/libhal_drv.a(bl_irq.o)
 .text.bl_irq_disable
                0x0000000000000000       0x10 /home/shoaib/bl_iot_sdk/customer_app/sdk_app_helloworld/build_out/hal_drv/libhal_drv.a(bl_irq.o)
 .text.bl_irq_pending_set
                0x0000000000000000        0xe /home/shoaib/bl_iot_sdk/customer_app/sdk_app_helloworld/build_out/hal_drv/libhal_drv.a(bl_irq.o)
 .text.bl_irq_pending_clear
                0x0000000000000000        0xc /home/shoaib/bl_iot_sdk/customer_app/sdk_app_helloworld/build_out/hal_drv/libhal_drv.a(bl_irq.o)
 .text.bl_irq_exception_trigger
                0x0000000000000000       0x56 /home/shoaib/bl_iot_sdk/customer_app/sdk_app_helloworld/build_out/hal_drv/libhal_drv.a(bl_irq.o)
 .text.bl_irq_default
                0x0000000000000000        0x2 /home/shoaib/bl_iot_sdk/customer_app/sdk_app_helloworld/build_out/hal_drv/libhal_drv.a(bl_irq.o)
 .text.bl_irq_register_with_ctx
                0x0000000000000000       0x30 /home/shoaib/bl_iot_sdk/customer_app/sdk_app_helloworld/build_out/hal_drv/libhal_drv.a(bl_irq.o)
 .text.bl_irq_ctx_get
                0x0000000000000000       0x20 /home/shoaib/bl_iot_sdk/customer_app/sdk_app_helloworld/build_out/hal_drv/libhal_drv.a(bl_irq.o)
 .text.bl_irq_register
                0x0000000000000000        0xa /home/shoaib/bl_iot_sdk/customer_app/sdk_app_helloworld/build_out/hal_drv/libhal_drv.a(bl_irq.o)
 .text.bl_irq_unregister
                0x0000000000000000       0x1c /home/shoaib/bl_iot_sdk/customer_app/sdk_app_helloworld/build_out/hal_drv/libhal_drv.a(bl_irq.o)
 .text.bl_irq_init
                0x0000000000000000       0x42 /home/shoaib/bl_iot_sdk/customer_app/sdk_app_helloworld/build_out/hal_drv/libhal_drv.a(bl_irq.o)
 .rodata.bl_irq_exception_trigger.str1.4
                0x0000000000000000       0x21 /home/shoaib/bl_iot_sdk/customer_app/sdk_app_helloworld/build_out/hal_drv/libhal_drv.a(bl_irq.o)
 .rodata.bl_irq_init.str1.4
                0x0000000000000000       0x34 /home/shoaib/bl_iot_sdk/customer_app/sdk_app_helloworld/build_out/hal_drv/libhal_drv.a(bl_irq.o)
 .text          0x0000000000000000        0x0 /home/shoaib/bl_iot_sdk/customer_app/sdk_app_helloworld/build_out/hal_drv/libhal_drv.a(bl_gpio.o)
 .data          0x0000000000000000        0x0 /home/shoaib/bl_iot_sdk/customer_app/sdk_app_helloworld/build_out/hal_drv/libhal_drv.a(bl_gpio.o)
 .bss           0x0000000000000000        0x0 /home/shoaib/bl_iot_sdk/customer_app/sdk_app_helloworld/build_out/hal_drv/libhal_drv.a(bl_gpio.o)
 .text.gpio_interrupt_entry
                0x0000000000000000       0x48 /home/shoaib/bl_iot_sdk/customer_app/sdk_app_helloworld/build_out/hal_drv/libhal_drv.a(bl_gpio.o)
 .text.bl_gpio_enable_input
                0x0000000000000000       0x42 /home/shoaib/bl_iot_sdk/customer_app/sdk_app_helloworld/build_out/hal_drv/libhal_drv.a(bl_gpio.o)
 .text.bl_gpio_input_get
                0x0000000000000000       0x1c /home/shoaib/bl_iot_sdk/customer_app/sdk_app_helloworld/build_out/hal_drv/libhal_drv.a(bl_gpio.o)
 .text.bl_gpio_input_get_value
                0x0000000000000000        0x8 /home/shoaib/bl_iot_sdk/customer_app/sdk_app_helloworld/build_out/hal_drv/libhal_drv.a(bl_gpio.o)
 .text.bl_gpio_intmask
                0x0000000000000000        0xc /home/shoaib/bl_iot_sdk/customer_app/sdk_app_helloworld/build_out/hal_drv/libhal_drv.a(bl_gpio.o)
 .text.bl_set_gpio_intmod
                0x0000000000000000        0x8 /home/shoaib/bl_iot_sdk/customer_app/sdk_app_helloworld/build_out/hal_drv/libhal_drv.a(bl_gpio.o)
 .text.bl_gpio_int_clear
                0x0000000000000000       0x2e /home/shoaib/bl_iot_sdk/customer_app/sdk_app_helloworld/build_out/hal_drv/libhal_drv.a(bl_gpio.o)
 .text.bl_gpio_register
                0x0000000000000000       0x60 /home/shoaib/bl_iot_sdk/customer_app/sdk_app_helloworld/build_out/hal_drv/libhal_drv.a(bl_gpio.o)
 .text          0x0000000000000000        0x0 /home/shoaib/bl_iot_sdk/customer_app/sdk_app_helloworld/build_out/sdk_app_helloworld/libsdk_app_helloworld.a(freertos.o)
 .data          0x0000000000000000        0x0 /home/shoaib/bl_iot_sdk/customer_app/sdk_app_helloworld/build_out/sdk_app_helloworld/libsdk_app_helloworld.a(freertos.o)
 .bss           0x0000000000000000        0x0 /home/shoaib/bl_iot_sdk/customer_app/sdk_app_helloworld/build_out/sdk_app_helloworld/libsdk_app_helloworld.a(freertos.o)
 .text.vApplicationMallocFailedHook
                0x0000000000000000       0x20 /home/shoaib/bl_iot_sdk/customer_app/sdk_app_helloworld/build_out/sdk_app_helloworld/libsdk_app_helloworld.a(freertos.o)
 .rodata.vApplicationMallocFailedHook.str1.4
                0x0000000000000000       0x34 /home/shoaib/bl_iot_sdk/customer_app/sdk_app_helloworld/build_out/sdk_app_helloworld/libsdk_app_helloworld.a(freertos.o)
 .text          0x0000000000000000        0x0 /home/shoaib/bl_iot_sdk/customer_app/sdk_app_helloworld/build_out/bl602_std/libbl602_std.a(bl602_uart.o)
 .data          0x0000000000000000        0x0 /home/shoaib/bl_iot_sdk/customer_app/sdk_app_helloworld/build_out/bl602_std/libbl602_std.a(bl602_uart.o)
 .bss           0x0000000000000000        0x0 /home/shoaib/bl_iot_sdk/customer_app/sdk_app_helloworld/build_out/bl602_std/libbl602_std.a(bl602_uart.o)
 .text.UART_DeInit
                0x0000000000000000       0x22 /home/shoaib/bl_iot_sdk/customer_app/sdk_app_helloworld/build_out/bl602_std/libbl602_std.a(bl602_uart.o)
 .text.UART_IrConfig
                0x0000000000000000       0x76 /home/shoaib/bl_iot_sdk/customer_app/sdk_app_helloworld/build_out/bl602_std/libbl602_std.a(bl602_uart.o)
 .text.UART_SetTxDataLength
                0x0000000000000000       0x20 /home/shoaib/bl_iot_sdk/customer_app/sdk_app_helloworld/build_out/bl602_std/libbl602_std.a(bl602_uart.o)
 .text.UART_SetRxDataLength
                0x0000000000000000       0x20 /home/shoaib/bl_iot_sdk/customer_app/sdk_app_helloworld/build_out/bl602_std/libbl602_std.a(bl602_uart.o)
 .text.UART_SetRxTimeoutValue
                0x0000000000000000       0x1e /home/shoaib/bl_iot_sdk/customer_app/sdk_app_helloworld/build_out/bl602_std/libbl602_std.a(bl602_uart.o)
 .text.UART_SetDeglitchCount
                0x0000000000000000       0x22 /home/shoaib/bl_iot_sdk/customer_app/sdk_app_helloworld/build_out/bl602_std/libbl602_std.a(bl602_uart.o)
 .text.UART_SetRtsValue
                0x0000000000000000       0x1a /home/shoaib/bl_iot_sdk/customer_app/sdk_app_helloworld/build_out/bl602_std/libbl602_std.a(bl602_uart.o)
 .text.UART_ClrRtsValue
                0x0000000000000000       0x18 /home/shoaib/bl_iot_sdk/customer_app/sdk_app_helloworld/build_out/bl602_std/libbl602_std.a(bl602_uart.o)
 .text.UART_AutoBaudDetection
                0x0000000000000000       0x24 /home/shoaib/bl_iot_sdk/customer_app/sdk_app_helloworld/build_out/bl602_std/libbl602_std.a(bl602_uart.o)
 .text.UART_TxFifoClear
                0x0000000000000000       0x1e /home/shoaib/bl_iot_sdk/customer_app/sdk_app_helloworld/build_out/bl602_std/libbl602_std.a(bl602_uart.o)
 .text.UART_RxFifoClear
                0x0000000000000000       0x1e /home/shoaib/bl_iot_sdk/customer_app/sdk_app_helloworld/build_out/bl602_std/libbl602_std.a(bl602_uart.o)
 .text.UART_IntClear
                0x0000000000000000       0x2a /home/shoaib/bl_iot_sdk/customer_app/sdk_app_helloworld/build_out/bl602_std/libbl602_std.a(bl602_uart.o)
 .text.UART_Int_Callback_Install
                0x0000000000000000        0x4 /home/shoaib/bl_iot_sdk/customer_app/sdk_app_helloworld/build_out/bl602_std/libbl602_std.a(bl602_uart.o)
 .text.UART_GetAutoBaudCount
                0x0000000000000000       0x1a /home/shoaib/bl_iot_sdk/customer_app/sdk_app_helloworld/build_out/bl602_std/libbl602_std.a(bl602_uart.o)
 .text.UART_SetBaudrate
                0x0000000000000000       0x30 /home/shoaib/bl_iot_sdk/customer_app/sdk_app_helloworld/build_out/bl602_std/libbl602_std.a(bl602_uart.o)
 .text.UART_SendData
                0x0000000000000000       0x76 /home/shoaib/bl_iot_sdk/customer_app/sdk_app_helloworld/build_out/bl602_std/libbl602_std.a(bl602_uart.o)
 .text.UART_GetRxFifoCount
                0x0000000000000000       0x1a /home/shoaib/bl_iot_sdk/customer_app/sdk_app_helloworld/build_out/bl602_std/libbl602_std.a(bl602_uart.o)
 .text.UART_ReceiveData
                0x0000000000000000       0x56 /home/shoaib/bl_iot_sdk/customer_app/sdk_app_helloworld/build_out/bl602_std/libbl602_std.a(bl602_uart.o)
 .text.UART_GetIntStatus
                0x0000000000000000       0x28 /home/shoaib/bl_iot_sdk/customer_app/sdk_app_helloworld/build_out/bl602_std/libbl602_std.a(bl602_uart.o)
 .text.UART_GetTxBusBusyStatus
                0x0000000000000000       0x14 /home/shoaib/bl_iot_sdk/customer_app/sdk_app_helloworld/build_out/bl602_std/libbl602_std.a(bl602_uart.o)
 .text.UART_SendDataBlock
                0x0000000000000000       0x86 /home/shoaib/bl_iot_sdk/customer_app/sdk_app_helloworld/build_out/bl602_std/libbl602_std.a(bl602_uart.o)
 .text.UART_GetRxBusBusyStatus
                0x0000000000000000       0x16 /home/shoaib/bl_iot_sdk/customer_app/sdk_app_helloworld/build_out/bl602_std/libbl602_std.a(bl602_uart.o)
 .text.UART_GetOverflowStatus
                0x0000000000000000       0x22 /home/shoaib/bl_iot_sdk/customer_app/sdk_app_helloworld/build_out/bl602_std/libbl602_std.a(bl602_uart.o)
 .text          0x0000000000000000        0x0 /home/shoaib/bl_iot_sdk/customer_app/sdk_app_helloworld/build_out/bl602_std/libbl602_std.a(bl602_glb.o)
 .data          0x0000000000000000        0x0 /home/shoaib/bl_iot_sdk/customer_app/sdk_app_helloworld/build_out/bl602_std/libbl602_std.a(bl602_glb.o)
 .bss           0x0000000000000000        0x0 /home/shoaib/bl_iot_sdk/customer_app/sdk_app_helloworld/build_out/bl602_std/libbl602_std.a(bl602_glb.o)
 .sclock_rlt_code
                0x0000000000000000      0x3ae /home/shoaib/bl_iot_sdk/customer_app/sdk_app_helloworld/build_out/bl602_std/libbl602_std.a(bl602_glb.o)
 .rodata        0x0000000000000000       0x44 /home/shoaib/bl_iot_sdk/customer_app/sdk_app_helloworld/build_out/bl602_std/libbl602_std.a(bl602_glb.o)
 .text.GLB_Set_BLE_CLK
                0x0000000000000000       0x22 /home/shoaib/bl_iot_sdk/customer_app/sdk_app_helloworld/build_out/bl602_std/libbl602_std.a(bl602_glb.o)
 .text.GLB_Set_WiFi_Core_CLK
                0x0000000000000000       0x10 /home/shoaib/bl_iot_sdk/customer_app/sdk_app_helloworld/build_out/bl602_std/libbl602_std.a(bl602_glb.o)
 .text.GLB_Set_WiFi_Encrypt_CLK
                0x0000000000000000       0x14 /home/shoaib/bl_iot_sdk/customer_app/sdk_app_helloworld/build_out/bl602_std/libbl602_std.a(bl602_glb.o)
 .text.GLB_Set_DMA_CLK
                0x0000000000000000       0x30 /home/shoaib/bl_iot_sdk/customer_app/sdk_app_helloworld/build_out/bl602_std/libbl602_std.a(bl602_glb.o)
 .text.GLB_Set_IR_CLK
                0x0000000000000000       0x32 /home/shoaib/bl_iot_sdk/customer_app/sdk_app_helloworld/build_out/bl602_std/libbl602_std.a(bl602_glb.o)
 .text.GLB_Set_I2C_CLK
                0x0000000000000000       0x32 /home/shoaib/bl_iot_sdk/customer_app/sdk_app_helloworld/build_out/bl602_std/libbl602_std.a(bl602_glb.o)
 .text.GLB_Set_SPI_CLK
                0x0000000000000000       0x22 /home/shoaib/bl_iot_sdk/customer_app/sdk_app_helloworld/build_out/bl602_std/libbl602_std.a(bl602_glb.o)
 .tcm_code      0x0000000000000000      0x36e /home/shoaib/bl_iot_sdk/customer_app/sdk_app_helloworld/build_out/bl602_std/libbl602_std.a(bl602_glb.o)
 .text.GLB_AHB_Slave1_Reset
                0x0000000000000000       0x34 /home/shoaib/bl_iot_sdk/customer_app/sdk_app_helloworld/build_out/bl602_std/libbl602_std.a(bl602_glb.o)
 .text.GLB_AHB_Slave1_Clock_Gate
                0x0000000000000000       0x24 /home/shoaib/bl_iot_sdk/customer_app/sdk_app_helloworld/build_out/bl602_std/libbl602_std.a(bl602_glb.o)
 .text.GLB_BMX_Init
                0x0000000000000000       0x2a /home/shoaib/bl_iot_sdk/customer_app/sdk_app_helloworld/build_out/bl602_std/libbl602_std.a(bl602_glb.o)
 .text.GLB_BMX_Addr_Monitor_Enable
                0x0000000000000000        0xe /home/shoaib/bl_iot_sdk/customer_app/sdk_app_helloworld/build_out/bl602_std/libbl602_std.a(bl602_glb.o)
 .text.GLB_BMX_Addr_Monitor_Disable
                0x0000000000000000       0x10 /home/shoaib/bl_iot_sdk/customer_app/sdk_app_helloworld/build_out/bl602_std/libbl602_std.a(bl602_glb.o)
 .text.GLB_BMX_BusErrResponse_Enable
                0x0000000000000000       0x10 /home/shoaib/bl_iot_sdk/customer_app/sdk_app_helloworld/build_out/bl602_std/libbl602_std.a(bl602_glb.o)
 .text.GLB_BMX_BusErrResponse_Disable
                0x0000000000000000       0x10 /home/shoaib/bl_iot_sdk/customer_app/sdk_app_helloworld/build_out/bl602_std/libbl602_std.a(bl602_glb.o)
 .text.GLB_BMX_Get_Status
                0x0000000000000000       0x14 /home/shoaib/bl_iot_sdk/customer_app/sdk_app_helloworld/build_out/bl602_std/libbl602_std.a(bl602_glb.o)
 .text.GLB_BMX_Get_Err_Addr
                0x0000000000000000        0x8 /home/shoaib/bl_iot_sdk/customer_app/sdk_app_helloworld/build_out/bl602_std/libbl602_std.a(bl602_glb.o)
 .text.BMX_ERR_INT_Callback_Install
                0x0000000000000000        0x4 /home/shoaib/bl_iot_sdk/customer_app/sdk_app_helloworld/build_out/bl602_std/libbl602_std.a(bl602_glb.o)
 .text.BMX_TIMEOUT_INT_Callback_Install
                0x0000000000000000        0x4 /home/shoaib/bl_iot_sdk/customer_app/sdk_app_helloworld/build_out/bl602_std/libbl602_std.a(bl602_glb.o)
 .text.GLB_Set_SRAM_RET
                0x0000000000000000        0xa /home/shoaib/bl_iot_sdk/customer_app/sdk_app_helloworld/build_out/bl602_std/libbl602_std.a(bl602_glb.o)
 .text.GLB_Get_SRAM_RET
                0x0000000000000000        0x8 /home/shoaib/bl_iot_sdk/customer_app/sdk_app_helloworld/build_out/bl602_std/libbl602_std.a(bl602_glb.o)
 .text.GLB_Set_SRAM_SLP
                0x0000000000000000        0xa /home/shoaib/bl_iot_sdk/customer_app/sdk_app_helloworld/build_out/bl602_std/libbl602_std.a(bl602_glb.o)
 .text.GLB_Get_SRAM_SLP
                0x0000000000000000        0x8 /home/shoaib/bl_iot_sdk/customer_app/sdk_app_helloworld/build_out/bl602_std/libbl602_std.a(bl602_glb.o)
 .text.GLB_Set_SRAM_PARM
                0x0000000000000000        0xa /home/shoaib/bl_iot_sdk/customer_app/sdk_app_helloworld/build_out/bl602_std/libbl602_std.a(bl602_glb.o)
 .text.GLB_Get_SRAM_PARM
                0x0000000000000000        0x8 /home/shoaib/bl_iot_sdk/customer_app/sdk_app_helloworld/build_out/bl602_std/libbl602_std.a(bl602_glb.o)
 .text.GLB_Set_EM_Sel
                0x0000000000000000       0x10 /home/shoaib/bl_iot_sdk/customer_app/sdk_app_helloworld/build_out/bl602_std/libbl602_std.a(bl602_glb.o)
 .text.GLB_UART_Sig_Swap_Set
                0x0000000000000000       0x1c /home/shoaib/bl_iot_sdk/customer_app/sdk_app_helloworld/build_out/bl602_std/libbl602_std.a(bl602_glb.o)
 .text.GLB_JTAG_Sig_Swap_Set
                0x0000000000000000       0x18 /home/shoaib/bl_iot_sdk/customer_app/sdk_app_helloworld/build_out/bl602_std/libbl602_std.a(bl602_glb.o)
 .text.GLB_Swap_SPI_0_MOSI_With_MISO
                0x0000000000000000       0x1a /home/shoaib/bl_iot_sdk/customer_app/sdk_app_helloworld/build_out/bl602_std/libbl602_std.a(bl602_glb.o)
 .text.GLB_Set_SPI_0_ACT_MOD_Sel
                0x0000000000000000       0x1a /home/shoaib/bl_iot_sdk/customer_app/sdk_app_helloworld/build_out/bl602_std/libbl602_std.a(bl602_glb.o)
 .text.GLB_Set_MTimer_CLK
                0x0000000000000000       0x4a /home/shoaib/bl_iot_sdk/customer_app/sdk_app_helloworld/build_out/bl602_std/libbl602_std.a(bl602_glb.o)
 .text.GLB_Set_ADC_CLK
                0x0000000000000000       0x40 /home/shoaib/bl_iot_sdk/customer_app/sdk_app_helloworld/build_out/bl602_std/libbl602_std.a(bl602_glb.o)
 .text.GLB_Set_DAC_CLK
                0x0000000000000000       0x4e /home/shoaib/bl_iot_sdk/customer_app/sdk_app_helloworld/build_out/bl602_std/libbl602_std.a(bl602_glb.o)
 .text.GLB_Platform_Wakeup_Enable
                0x0000000000000000       0x16 /home/shoaib/bl_iot_sdk/customer_app/sdk_app_helloworld/build_out/bl602_std/libbl602_std.a(bl602_glb.o)
 .text.GLB_Platform_Wakeup_Disable
                0x0000000000000000       0x14 /home/shoaib/bl_iot_sdk/customer_app/sdk_app_helloworld/build_out/bl602_std/libbl602_std.a(bl602_glb.o)
 .text.GLB_Set_DIG_CLK_Sel
                0x0000000000000000       0x50 /home/shoaib/bl_iot_sdk/customer_app/sdk_app_helloworld/build_out/bl602_std/libbl602_std.a(bl602_glb.o)
 .text.GLB_Set_DIG_512K_CLK
                0x0000000000000000       0x50 /home/shoaib/bl_iot_sdk/customer_app/sdk_app_helloworld/build_out/bl602_std/libbl602_std.a(bl602_glb.o)
 .text.GLB_Set_DIG_32K_CLK
                0x0000000000000000       0x42 /home/shoaib/bl_iot_sdk/customer_app/sdk_app_helloworld/build_out/bl602_std/libbl602_std.a(bl602_glb.o)
 .text.GLB_Set_BT_Coex_Signal
                0x0000000000000000       0x36 /home/shoaib/bl_iot_sdk/customer_app/sdk_app_helloworld/build_out/bl602_std/libbl602_std.a(bl602_glb.o)
 .text.GLB_IR_RX_GPIO_Sel
                0x0000000000000000       0x3c /home/shoaib/bl_iot_sdk/customer_app/sdk_app_helloworld/build_out/bl602_std/libbl602_std.a(bl602_glb.o)
 .text.GLB_IR_LED_Driver_Enable
                0x0000000000000000       0x16 /home/shoaib/bl_iot_sdk/customer_app/sdk_app_helloworld/build_out/bl602_std/libbl602_std.a(bl602_glb.o)
 .text.GLB_IR_LED_Driver_Disable
                0x0000000000000000       0x14 /home/shoaib/bl_iot_sdk/customer_app/sdk_app_helloworld/build_out/bl602_std/libbl602_std.a(bl602_glb.o)
 .text.GLB_IR_LED_Driver_Ibias
                0x0000000000000000       0x1c /home/shoaib/bl_iot_sdk/customer_app/sdk_app_helloworld/build_out/bl602_std/libbl602_std.a(bl602_glb.o)
 .text.GLB_GPIO_Func_Init
                0x0000000000000000       0x50 /home/shoaib/bl_iot_sdk/customer_app/sdk_app_helloworld/build_out/bl602_std/libbl602_std.a(bl602_glb.o)
 .text.GLB_GPIO_Get_Real_Fun
                0x0000000000000000       0x24 /home/shoaib/bl_iot_sdk/customer_app/sdk_app_helloworld/build_out/bl602_std/libbl602_std.a(bl602_glb.o)
 .text.GLB_GPIO_Read
                0x0000000000000000       0x20 /home/shoaib/bl_iot_sdk/customer_app/sdk_app_helloworld/build_out/bl602_std/libbl602_std.a(bl602_glb.o)
 .text.GLB_GPIO_IntMask
                0x0000000000000000       0x2e /home/shoaib/bl_iot_sdk/customer_app/sdk_app_helloworld/build_out/bl602_std/libbl602_std.a(bl602_glb.o)
 .text.GLB_GPIO_IntClear
                0x0000000000000000       0x2e /home/shoaib/bl_iot_sdk/customer_app/sdk_app_helloworld/build_out/bl602_std/libbl602_std.a(bl602_glb.o)
 .text.GLB_Get_GPIO_IntStatus
                0x0000000000000000       0x1e /home/shoaib/bl_iot_sdk/customer_app/sdk_app_helloworld/build_out/bl602_std/libbl602_std.a(bl602_glb.o)
 .text.GLB_Clr_GPIO_IntStatus
                0x0000000000000000       0x1e /home/shoaib/bl_iot_sdk/customer_app/sdk_app_helloworld/build_out/bl602_std/libbl602_std.a(bl602_glb.o)
 .text.GLB_Set_GPIO_IntMod
                0x0000000000000000       0x84 /home/shoaib/bl_iot_sdk/customer_app/sdk_app_helloworld/build_out/bl602_std/libbl602_std.a(bl602_glb.o)
 .text.GLB_Get_GPIO_IntCtlMod
                0x0000000000000000       0x4c /home/shoaib/bl_iot_sdk/customer_app/sdk_app_helloworld/build_out/bl602_std/libbl602_std.a(bl602_glb.o)
 .text.GLB_GPIO_INT0_Callback_Install
                0x0000000000000000        0x4 /home/shoaib/bl_iot_sdk/customer_app/sdk_app_helloworld/build_out/bl602_std/libbl602_std.a(bl602_glb.o)
 .text          0x0000000000000000        0x0 /home/shoaib/bl_iot_sdk/customer_app/sdk_app_helloworld/build_out/bl602_std/libbl602_std.a(bl602_hbn.o)
 .data          0x0000000000000000        0x0 /home/shoaib/bl_iot_sdk/customer_app/sdk_app_helloworld/build_out/bl602_std/libbl602_std.a(bl602_hbn.o)
 .bss           0x0000000000000000        0x0 /home/shoaib/bl_iot_sdk/customer_app/sdk_app_helloworld/build_out/bl602_std/libbl602_std.a(bl602_hbn.o)
 .tcm_code      0x0000000000000000      0x2be /home/shoaib/bl_iot_sdk/customer_app/sdk_app_helloworld/build_out/bl602_std/libbl602_std.a(bl602_hbn.o)
 .text.HBN_App_Reset
                0x0000000000000000       0xb4 /home/shoaib/bl_iot_sdk/customer_app/sdk_app_helloworld/build_out/bl602_std/libbl602_std.a(bl602_hbn.o)
 .text.HBN_Disable
                0x0000000000000000       0x10 /home/shoaib/bl_iot_sdk/customer_app/sdk_app_helloworld/build_out/bl602_std/libbl602_std.a(bl602_hbn.o)
 .text.HBN_PIR_Enable
                0x0000000000000000       0x10 /home/shoaib/bl_iot_sdk/customer_app/sdk_app_helloworld/build_out/bl602_std/libbl602_std.a(bl602_hbn.o)
 .text.HBN_PIR_Disable
                0x0000000000000000       0x10 /home/shoaib/bl_iot_sdk/customer_app/sdk_app_helloworld/build_out/bl602_std/libbl602_std.a(bl602_hbn.o)
 .text.HBN_PIR_INT_Config
                0x0000000000000000       0x2c /home/shoaib/bl_iot_sdk/customer_app/sdk_app_helloworld/build_out/bl602_std/libbl602_std.a(bl602_hbn.o)
 .text.HBN_PIR_LPF_Sel
                0x0000000000000000       0x12 /home/shoaib/bl_iot_sdk/customer_app/sdk_app_helloworld/build_out/bl602_std/libbl602_std.a(bl602_hbn.o)
 .text.HBN_PIR_HPF_Sel
                0x0000000000000000       0x10 /home/shoaib/bl_iot_sdk/customer_app/sdk_app_helloworld/build_out/bl602_std/libbl602_std.a(bl602_hbn.o)
 .text.HBN_Set_PIR_Threshold
                0x0000000000000000       0x12 /home/shoaib/bl_iot_sdk/customer_app/sdk_app_helloworld/build_out/bl602_std/libbl602_std.a(bl602_hbn.o)
 .text.HBN_Get_PIR_Threshold
                0x0000000000000000        0xc /home/shoaib/bl_iot_sdk/customer_app/sdk_app_helloworld/build_out/bl602_std/libbl602_std.a(bl602_hbn.o)
 .text.HBN_Set_PIR_Interval
                0x0000000000000000       0x12 /home/shoaib/bl_iot_sdk/customer_app/sdk_app_helloworld/build_out/bl602_std/libbl602_std.a(bl602_hbn.o)
 .text.HBN_Get_PIR_Interval
                0x0000000000000000        0xc /home/shoaib/bl_iot_sdk/customer_app/sdk_app_helloworld/build_out/bl602_std/libbl602_std.a(bl602_hbn.o)
 .text.HBN_Get_BOR_OUT_State
                0x0000000000000000        0xc /home/shoaib/bl_iot_sdk/customer_app/sdk_app_helloworld/build_out/bl602_std/libbl602_std.a(bl602_hbn.o)
 .text.HBN_Set_BOR_Config
                0x0000000000000000       0x22 /home/shoaib/bl_iot_sdk/customer_app/sdk_app_helloworld/build_out/bl602_std/libbl602_std.a(bl602_hbn.o)
 .text.HBN_Set_Ldo11_All_Vout
                0x0000000000000000       0x30 /home/shoaib/bl_iot_sdk/customer_app/sdk_app_helloworld/build_out/bl602_std/libbl602_std.a(bl602_hbn.o)
 .text.HBN_Set_XCLK_CLK_Sel
                0x0000000000000000       0x3c /home/shoaib/bl_iot_sdk/customer_app/sdk_app_helloworld/build_out/bl602_std/libbl602_std.a(bl602_hbn.o)
 .sclock_rlt_code
                0x0000000000000000      0x14e /home/shoaib/bl_iot_sdk/customer_app/sdk_app_helloworld/build_out/bl602_std/libbl602_std.a(bl602_hbn.o)
 .text.HBN_Set_HRAM_slp
                0x0000000000000000       0x14 /home/shoaib/bl_iot_sdk/customer_app/sdk_app_helloworld/build_out/bl602_std/libbl602_std.a(bl602_hbn.o)
 .text.HBN_Set_HRAM_Ret
                0x0000000000000000       0x14 /home/shoaib/bl_iot_sdk/customer_app/sdk_app_helloworld/build_out/bl602_std/libbl602_std.a(bl602_hbn.o)
 .text.HBN_Get_Status_Flag
                0x0000000000000000        0xa /home/shoaib/bl_iot_sdk/customer_app/sdk_app_helloworld/build_out/bl602_std/libbl602_std.a(bl602_hbn.o)
 .text.HBN_Set_Status_Flag
                0x0000000000000000        0xc /home/shoaib/bl_iot_sdk/customer_app/sdk_app_helloworld/build_out/bl602_std/libbl602_std.a(bl602_hbn.o)
 .text.HBN_Get_Wakeup_Addr
                0x0000000000000000        0xa /home/shoaib/bl_iot_sdk/customer_app/sdk_app_helloworld/build_out/bl602_std/libbl602_std.a(bl602_hbn.o)
 .text.HBN_Set_Wakeup_Addr
                0x0000000000000000        0xc /home/shoaib/bl_iot_sdk/customer_app/sdk_app_helloworld/build_out/bl602_std/libbl602_std.a(bl602_hbn.o)
 .text.HBN_Clear_RTC_Counter
                0x0000000000000000        0xe /home/shoaib/bl_iot_sdk/customer_app/sdk_app_helloworld/build_out/bl602_std/libbl602_std.a(bl602_hbn.o)
 .text.HBN_Enable_RTC_Counter
                0x0000000000000000       0x10 /home/shoaib/bl_iot_sdk/customer_app/sdk_app_helloworld/build_out/bl602_std/libbl602_std.a(bl602_hbn.o)
 .text.HBN_Set_RTC_Timer
                0x0000000000000000       0x24 /home/shoaib/bl_iot_sdk/customer_app/sdk_app_helloworld/build_out/bl602_std/libbl602_std.a(bl602_hbn.o)
 .text.HBN_Clear_RTC_INT
                0x0000000000000000        0xe /home/shoaib/bl_iot_sdk/customer_app/sdk_app_helloworld/build_out/bl602_std/libbl602_std.a(bl602_hbn.o)
 .text.HBN_GPIO_INT_Enable
                0x0000000000000000       0x10 /home/shoaib/bl_iot_sdk/customer_app/sdk_app_helloworld/build_out/bl602_std/libbl602_std.a(bl602_hbn.o)
 .text.HBN_GPIO_INT_Disable
                0x0000000000000000        0xe /home/shoaib/bl_iot_sdk/customer_app/sdk_app_helloworld/build_out/bl602_std/libbl602_std.a(bl602_hbn.o)
 .text.HBN_Get_INT_State
                0x0000000000000000       0x14 /home/shoaib/bl_iot_sdk/customer_app/sdk_app_helloworld/build_out/bl602_std/libbl602_std.a(bl602_hbn.o)
 .text.HBN_Get_Pin_Wakeup_Mode
                0x0000000000000000        0xa /home/shoaib/bl_iot_sdk/customer_app/sdk_app_helloworld/build_out/bl602_std/libbl602_std.a(bl602_hbn.o)
 .text.HBN_Clear_IRQ
                0x0000000000000000       0x1e /home/shoaib/bl_iot_sdk/customer_app/sdk_app_helloworld/build_out/bl602_std/libbl602_std.a(bl602_hbn.o)
 .text.HBN_Aon_Pad_IeSmt_Cfg
                0x0000000000000000       0x14 /home/shoaib/bl_iot_sdk/customer_app/sdk_app_helloworld/build_out/bl602_std/libbl602_std.a(bl602_hbn.o)
 .text.HBN_Enable_AComp0_IRQ
                0x0000000000000000       0x12 /home/shoaib/bl_iot_sdk/customer_app/sdk_app_helloworld/build_out/bl602_std/libbl602_std.a(bl602_hbn.o)
 .text.HBN_Disable_AComp0_IRQ
                0x0000000000000000       0x14 /home/shoaib/bl_iot_sdk/customer_app/sdk_app_helloworld/build_out/bl602_std/libbl602_std.a(bl602_hbn.o)
 .text.HBN_Enable_AComp1_IRQ
                0x0000000000000000       0x12 /home/shoaib/bl_iot_sdk/customer_app/sdk_app_helloworld/build_out/bl602_std/libbl602_std.a(bl602_hbn.o)
 .text.HBN_Disable_AComp1_IRQ
                0x0000000000000000       0x14 /home/shoaib/bl_iot_sdk/customer_app/sdk_app_helloworld/build_out/bl602_std/libbl602_std.a(bl602_hbn.o)
 .text.HBN_Enable_BOR_IRQ
                0x0000000000000000       0x12 /home/shoaib/bl_iot_sdk/customer_app/sdk_app_helloworld/build_out/bl602_std/libbl602_std.a(bl602_hbn.o)
 .text.HBN_Disable_BOR_IRQ
                0x0000000000000000       0x14 /home/shoaib/bl_iot_sdk/customer_app/sdk_app_helloworld/build_out/bl602_std/libbl602_std.a(bl602_hbn.o)
 .text.HBN_Out0_Callback_Install
                0x0000000000000000        0x4 /home/shoaib/bl_iot_sdk/customer_app/sdk_app_helloworld/build_out/bl602_std/libbl602_std.a(bl602_hbn.o)
 .text.HBN_Out1_Callback_Install
                0x0000000000000000        0x4 /home/shoaib/bl_iot_sdk/customer_app/sdk_app_helloworld/build_out/bl602_std/libbl602_std.a(bl602_hbn.o)
 .text.HBN_Set_BOR_Cfg
                0x0000000000000000       0x5e /home/shoaib/bl_iot_sdk/customer_app/sdk_app_helloworld/build_out/bl602_std/libbl602_std.a(bl602_hbn.o)
 .text          0x0000000000000000        0x0 /home/shoaib/bl_iot_sdk/customer_app/sdk_app_helloworld/build_out/bl602_std/libbl602_std.a(bl602_aon.o)
 .data          0x0000000000000000        0x0 /home/shoaib/bl_iot_sdk/customer_app/sdk_app_helloworld/build_out/bl602_std/libbl602_std.a(bl602_aon.o)
 .bss           0x0000000000000000        0x0 /home/shoaib/bl_iot_sdk/customer_app/sdk_app_helloworld/build_out/bl602_std/libbl602_std.a(bl602_aon.o)
 .sclock_rlt_code
                0x0000000000000000       0xf6 /home/shoaib/bl_iot_sdk/customer_app/sdk_app_helloworld/build_out/bl602_std/libbl602_std.a(bl602_aon.o)
 .tcm_code      0x0000000000000000      0x1bc /home/shoaib/bl_iot_sdk/customer_app/sdk_app_helloworld/build_out/bl602_std/libbl602_std.a(bl602_aon.o)
 .debug_info    0x0000000000000000      0xd8f /home/shoaib/bl_iot_sdk/customer_app/sdk_app_helloworld/build_out/bl602_std/libbl602_std.a(bl602_aon.o)
 .debug_abbrev  0x0000000000000000      0x28d /home/shoaib/bl_iot_sdk/customer_app/sdk_app_helloworld/build_out/bl602_std/libbl602_std.a(bl602_aon.o)
 .debug_loc     0x0000000000000000      0x3d5 /home/shoaib/bl_iot_sdk/customer_app/sdk_app_helloworld/build_out/bl602_std/libbl602_std.a(bl602_aon.o)
 .debug_aranges
                0x0000000000000000       0xa0 /home/shoaib/bl_iot_sdk/customer_app/sdk_app_helloworld/build_out/bl602_std/libbl602_std.a(bl602_aon.o)
 .debug_ranges  0x0000000000000000       0x90 /home/shoaib/bl_iot_sdk/customer_app/sdk_app_helloworld/build_out/bl602_std/libbl602_std.a(bl602_aon.o)
 .debug_line    0x0000000000000000      0xaea /home/shoaib/bl_iot_sdk/customer_app/sdk_app_helloworld/build_out/bl602_std/libbl602_std.a(bl602_aon.o)
 .debug_str     0x0000000000000000      0x7bc /home/shoaib/bl_iot_sdk/customer_app/sdk_app_helloworld/build_out/bl602_std/libbl602_std.a(bl602_aon.o)
 .comment       0x0000000000000000       0x29 /home/shoaib/bl_iot_sdk/customer_app/sdk_app_helloworld/build_out/bl602_std/libbl602_std.a(bl602_aon.o)
 .debug_frame   0x0000000000000000      0x1b0 /home/shoaib/bl_iot_sdk/customer_app/sdk_app_helloworld/build_out/bl602_std/libbl602_std.a(bl602_aon.o)
 .riscv.attributes
                0x0000000000000000       0x2b /home/shoaib/bl_iot_sdk/customer_app/sdk_app_helloworld/build_out/bl602_std/libbl602_std.a(bl602_aon.o)
 .text          0x0000000000000000        0x0 /home/shoaib/bl_iot_sdk/customer_app/sdk_app_helloworld/build_out/bl602_std/libbl602_std.a(bl602_pds.o)
 .data          0x0000000000000000        0x0 /home/shoaib/bl_iot_sdk/customer_app/sdk_app_helloworld/build_out/bl602_std/libbl602_std.a(bl602_pds.o)
 .bss           0x0000000000000000        0x0 /home/shoaib/bl_iot_sdk/customer_app/sdk_app_helloworld/build_out/bl602_std/libbl602_std.a(bl602_pds.o)
 .tcm_code      0x0000000000000000       0xc6 /home/shoaib/bl_iot_sdk/customer_app/sdk_app_helloworld/build_out/bl602_std/libbl602_std.a(bl602_pds.o)
 .text.PDS_IntMask
                0x0000000000000000       0x24 /home/shoaib/bl_iot_sdk/customer_app/sdk_app_helloworld/build_out/bl602_std/libbl602_std.a(bl602_pds.o)
 .text.PDS_Get_IntStatus
                0x0000000000000000       0x14 /home/shoaib/bl_iot_sdk/customer_app/sdk_app_helloworld/build_out/bl602_std/libbl602_std.a(bl602_pds.o)
 .text.PDS_IntClear
                0x0000000000000000       0x20 /home/shoaib/bl_iot_sdk/customer_app/sdk_app_helloworld/build_out/bl602_std/libbl602_std.a(bl602_pds.o)
 .text.PDS_Get_PdsPllStstus
                0x0000000000000000        0xc /home/shoaib/bl_iot_sdk/customer_app/sdk_app_helloworld/build_out/bl602_std/libbl602_std.a(bl602_pds.o)
 .text.PDS_Get_PdsRfStstus
                0x0000000000000000        0xc /home/shoaib/bl_iot_sdk/customer_app/sdk_app_helloworld/build_out/bl602_std/libbl602_std.a(bl602_pds.o)
 .text.PDS_Get_PdsStstus
                0x0000000000000000        0xa /home/shoaib/bl_iot_sdk/customer_app/sdk_app_helloworld/build_out/bl602_std/libbl602_std.a(bl602_pds.o)
 .text.PDS_Int_Callback_Install
                0x0000000000000000        0x4 /home/shoaib/bl_iot_sdk/customer_app/sdk_app_helloworld/build_out/bl602_std/libbl602_std.a(bl602_pds.o)
 .sclock_rlt_code
                0x0000000000000000      0x2c4 /home/shoaib/bl_iot_sdk/customer_app/sdk_app_helloworld/build_out/bl602_std/libbl602_std.a(bl602_pds.o)
 .rodata        0x0000000000000000       0x14 /home/shoaib/bl_iot_sdk/customer_app/sdk_app_helloworld/build_out/bl602_std/libbl602_std.a(bl602_pds.o)
 .debug_info    0x0000000000000000     0x17a0 /home/shoaib/bl_iot_sdk/customer_app/sdk_app_helloworld/build_out/bl602_std/libbl602_std.a(bl602_pds.o)
 .debug_abbrev  0x0000000000000000      0x34d /home/shoaib/bl_iot_sdk/customer_app/sdk_app_helloworld/build_out/bl602_std/libbl602_std.a(bl602_pds.o)
 .debug_loc     0x0000000000000000      0x5de /home/shoaib/bl_iot_sdk/customer_app/sdk_app_helloworld/build_out/bl602_std/libbl602_std.a(bl602_pds.o)
 .debug_aranges
                0x0000000000000000       0xc0 /home/shoaib/bl_iot_sdk/customer_app/sdk_app_helloworld/build_out/bl602_std/libbl602_std.a(bl602_pds.o)
 .debug_ranges  0x0000000000000000       0xb0 /home/shoaib/bl_iot_sdk/customer_app/sdk_app_helloworld/build_out/bl602_std/libbl602_std.a(bl602_pds.o)
 .debug_line    0x0000000000000000     0x1017 /home/shoaib/bl_iot_sdk/customer_app/sdk_app_helloworld/build_out/bl602_std/libbl602_std.a(bl602_pds.o)
 .debug_str     0x0000000000000000     0x10f9 /home/shoaib/bl_iot_sdk/customer_app/sdk_app_helloworld/build_out/bl602_std/libbl602_std.a(bl602_pds.o)
 .comment       0x0000000000000000       0x29 /home/shoaib/bl_iot_sdk/customer_app/sdk_app_helloworld/build_out/bl602_std/libbl602_std.a(bl602_pds.o)
 .debug_frame   0x0000000000000000      0x198 /home/shoaib/bl_iot_sdk/customer_app/sdk_app_helloworld/build_out/bl602_std/libbl602_std.a(bl602_pds.o)
 .riscv.attributes
                0x0000000000000000       0x2b /home/shoaib/bl_iot_sdk/customer_app/sdk_app_helloworld/build_out/bl602_std/libbl602_std.a(bl602_pds.o)
 .text          0x0000000000000000        0x0 /home/shoaib/bl_iot_sdk/customer_app/sdk_app_helloworld/build_out/bl602_std/libbl602_std.a(bl602_l1c.o)
 .data          0x0000000000000000        0x0 /home/shoaib/bl_iot_sdk/customer_app/sdk_app_helloworld/build_out/bl602_std/libbl602_std.a(bl602_l1c.o)
 .bss           0x0000000000000000        0x0 /home/shoaib/bl_iot_sdk/customer_app/sdk_app_helloworld/build_out/bl602_std/libbl602_std.a(bl602_l1c.o)
 .tcm_code      0x0000000000000000       0x60 /home/shoaib/bl_iot_sdk/customer_app/sdk_app_helloworld/build_out/bl602_std/libbl602_std.a(bl602_l1c.o)
 .text.L1C_BMX_Init
                0x0000000000000000       0x3a /home/shoaib/bl_iot_sdk/customer_app/sdk_app_helloworld/build_out/bl602_std/libbl602_std.a(bl602_l1c.o)
 .text.L1C_BMX_Addr_Monitor_Enable
                0x0000000000000000       0x12 /home/shoaib/bl_iot_sdk/customer_app/sdk_app_helloworld/build_out/bl602_std/libbl602_std.a(bl602_l1c.o)
 .text.L1C_BMX_Addr_Monitor_Disable
                0x0000000000000000       0x14 /home/shoaib/bl_iot_sdk/customer_app/sdk_app_helloworld/build_out/bl602_std/libbl602_std.a(bl602_l1c.o)
 .text.L1C_BMX_BusErrResponse_Enable
                0x0000000000000000       0x10 /home/shoaib/bl_iot_sdk/customer_app/sdk_app_helloworld/build_out/bl602_std/libbl602_std.a(bl602_l1c.o)
 .text.L1C_BMX_BusErrResponse_Disable
                0x0000000000000000       0x12 /home/shoaib/bl_iot_sdk/customer_app/sdk_app_helloworld/build_out/bl602_std/libbl602_std.a(bl602_l1c.o)
 .text.L1C_BMX_Get_Status
                0x0000000000000000       0x16 /home/shoaib/bl_iot_sdk/customer_app/sdk_app_helloworld/build_out/bl602_std/libbl602_std.a(bl602_l1c.o)
 .text.L1C_BMX_Get_Err_Addr
                0x0000000000000000        0xa /home/shoaib/bl_iot_sdk/customer_app/sdk_app_helloworld/build_out/bl602_std/libbl602_std.a(bl602_l1c.o)
 .text.L1C_BMX_ERR_INT_Callback_Install
                0x0000000000000000        0x4 /home/shoaib/bl_iot_sdk/customer_app/sdk_app_helloworld/build_out/bl602_std/libbl602_std.a(bl602_l1c.o)
 .text.L1C_BMX_TIMEOUT_INT_Callback_Install
                0x0000000000000000        0x4 /home/shoaib/bl_iot_sdk/customer_app/sdk_app_helloworld/build_out/bl602_std/libbl602_std.a(bl602_l1c.o)
 .debug_info    0x0000000000000000      0xd69 /home/shoaib/bl_iot_sdk/customer_app/sdk_app_helloworld/build_out/bl602_std/libbl602_std.a(bl602_l1c.o)
 .debug_abbrev  0x0000000000000000      0x2c8 /home/shoaib/bl_iot_sdk/customer_app/sdk_app_helloworld/build_out/bl602_std/libbl602_std.a(bl602_l1c.o)
 .debug_loc     0x0000000000000000      0x285 /home/shoaib/bl_iot_sdk/customer_app/sdk_app_helloworld/build_out/bl602_std/libbl602_std.a(bl602_l1c.o)
 .debug_aranges
                0x0000000000000000       0x78 /home/shoaib/bl_iot_sdk/customer_app/sdk_app_helloworld/build_out/bl602_std/libbl602_std.a(bl602_l1c.o)
 .debug_ranges  0x0000000000000000       0x68 /home/shoaib/bl_iot_sdk/customer_app/sdk_app_helloworld/build_out/bl602_std/libbl602_std.a(bl602_l1c.o)
 .debug_line    0x0000000000000000      0x769 /home/shoaib/bl_iot_sdk/customer_app/sdk_app_helloworld/build_out/bl602_std/libbl602_std.a(bl602_l1c.o)
 .debug_str     0x0000000000000000      0x92b /home/shoaib/bl_iot_sdk/customer_app/sdk_app_helloworld/build_out/bl602_std/libbl602_std.a(bl602_l1c.o)
 .comment       0x0000000000000000       0x29 /home/shoaib/bl_iot_sdk/customer_app/sdk_app_helloworld/build_out/bl602_std/libbl602_std.a(bl602_l1c.o)
 .debug_frame   0x0000000000000000       0xd0 /home/shoaib/bl_iot_sdk/customer_app/sdk_app_helloworld/build_out/bl602_std/libbl602_std.a(bl602_l1c.o)
 .riscv.attributes
                0x0000000000000000       0x2b /home/shoaib/bl_iot_sdk/customer_app/sdk_app_helloworld/build_out/bl602_std/libbl602_std.a(bl602_l1c.o)
 .text          0x0000000000000000        0x0 /home/shoaib/bl_iot_sdk/customer_app/sdk_app_helloworld/build_out/bl602_std/libbl602_std.a(bl602_ef_ctrl.o)
 .data          0x0000000000000000        0x0 /home/shoaib/bl_iot_sdk/customer_app/sdk_app_helloworld/build_out/bl602_std/libbl602_std.a(bl602_ef_ctrl.o)
 .bss           0x0000000000000000        0x0 /home/shoaib/bl_iot_sdk/customer_app/sdk_app_helloworld/build_out/bl602_std/libbl602_std.a(bl602_ef_ctrl.o)
 .text.EF_Ctrl_Get_Byte_Zero_Cnt
                0x0000000000000000       0x1a /home/shoaib/bl_iot_sdk/customer_app/sdk_app_helloworld/build_out/bl602_std/libbl602_std.a(bl602_ef_ctrl.o)
 .tcm_code      0x0000000000000000      0x134 /home/shoaib/bl_iot_sdk/customer_app/sdk_app_helloworld/build_out/bl602_std/libbl602_std.a(bl602_ef_ctrl.o)
 .text.EF_Ctrl_Write_Dbg_Pwd
                0x0000000000000000       0x34 /home/shoaib/bl_iot_sdk/customer_app/sdk_app_helloworld/build_out/bl602_std/libbl602_std.a(bl602_ef_ctrl.o)
 .text.EF_Ctrl_Readlock_Dbg_Pwd
                0x0000000000000000       0x32 /home/shoaib/bl_iot_sdk/customer_app/sdk_app_helloworld/build_out/bl602_std/libbl602_std.a(bl602_ef_ctrl.o)
 .text.EF_Ctrl_Writelock_Dbg_Pwd
                0x0000000000000000       0x30 /home/shoaib/bl_iot_sdk/customer_app/sdk_app_helloworld/build_out/bl602_std/libbl602_std.a(bl602_ef_ctrl.o)
 .text.EF_Ctrl_Write_Secure_Cfg
                0x0000000000000000       0x3c /home/shoaib/bl_iot_sdk/customer_app/sdk_app_helloworld/build_out/bl602_std/libbl602_std.a(bl602_ef_ctrl.o)
 .text.EF_Ctrl_Write_Secure_Boot
                0x0000000000000000       0x52 /home/shoaib/bl_iot_sdk/customer_app/sdk_app_helloworld/build_out/bl602_std/libbl602_std.a(bl602_ef_ctrl.o)
 .sclock_rlt_code
                0x0000000000000000      0x16e /home/shoaib/bl_iot_sdk/customer_app/sdk_app_helloworld/build_out/bl602_std/libbl602_std.a(bl602_ef_ctrl.o)
 .text.EF_Ctrl_Write_Ana_Trim
                0x0000000000000000       0x34 /home/shoaib/bl_iot_sdk/customer_app/sdk_app_helloworld/build_out/bl602_std/libbl602_std.a(bl602_ef_ctrl.o)
 .text.EF_Ctrl_Write_Sw_Usage
                0x0000000000000000       0x34 /home/shoaib/bl_iot_sdk/customer_app/sdk_app_helloworld/build_out/bl602_std/libbl602_std.a(bl602_ef_ctrl.o)
 .text.EF_Ctrl_Writelock_Sw_Usage
                0x0000000000000000       0x3c /home/shoaib/bl_iot_sdk/customer_app/sdk_app_helloworld/build_out/bl602_std/libbl602_std.a(bl602_ef_ctrl.o)
 .text.EF_Ctrl_Write_MAC_Address
                0x0000000000000000       0x58 /home/shoaib/bl_iot_sdk/customer_app/sdk_app_helloworld/build_out/bl602_std/libbl602_std.a(bl602_ef_ctrl.o)
 .text.EF_Ctrl_Writelock_MAC_Address
                0x0000000000000000       0x32 /home/shoaib/bl_iot_sdk/customer_app/sdk_app_helloworld/build_out/bl602_std/libbl602_std.a(bl602_ef_ctrl.o)
 .text.EF_Ctrl_Is_All_Bits_Zero
                0x0000000000000000       0x1e /home/shoaib/bl_iot_sdk/customer_app/sdk_app_helloworld/build_out/bl602_std/libbl602_std.a(bl602_ef_ctrl.o)
 .text.EF_Ctrl_Write_MAC_Address_Opt
                0x0000000000000000      0x122 /home/shoaib/bl_iot_sdk/customer_app/sdk_app_helloworld/build_out/bl602_std/libbl602_std.a(bl602_ef_ctrl.o)
 .text.EF_Ctrl_Write_PowerOffset_Opt
                0x0000000000000000       0xe4 /home/shoaib/bl_iot_sdk/customer_app/sdk_app_helloworld/build_out/bl602_std/libbl602_std.a(bl602_ef_ctrl.o)
 .text.EF_Ctrl_Write_AES_Key
                0x0000000000000000       0x54 /home/shoaib/bl_iot_sdk/customer_app/sdk_app_helloworld/build_out/bl602_std/libbl602_std.a(bl602_ef_ctrl.o)
 .text.EF_Ctrl_Writelock_AES_Key
                0x0000000000000000       0x64 /home/shoaib/bl_iot_sdk/customer_app/sdk_app_helloworld/build_out/bl602_std/libbl602_std.a(bl602_ef_ctrl.o)
 .text.EF_Ctrl_Readlock_AES_Key
                0x0000000000000000       0x4c /home/shoaib/bl_iot_sdk/customer_app/sdk_app_helloworld/build_out/bl602_std/libbl602_std.a(bl602_ef_ctrl.o)
 .text.EF_Ctrl_Program_Direct_R0
                0x0000000000000000       0x40 /home/shoaib/bl_iot_sdk/customer_app/sdk_app_helloworld/build_out/bl602_std/libbl602_std.a(bl602_ef_ctrl.o)
 .text.EF_Ctrl_Write_R0
                0x0000000000000000       0x38 /home/shoaib/bl_iot_sdk/customer_app/sdk_app_helloworld/build_out/bl602_std/libbl602_std.a(bl602_ef_ctrl.o)
 .text.EF_Ctrl_Read_R0
                0x0000000000000000       0x14 /home/shoaib/bl_iot_sdk/customer_app/sdk_app_helloworld/build_out/bl602_std/libbl602_std.a(bl602_ef_ctrl.o)
 .text.EF_Ctrl_Read_Dbg_Pwd
                0x0000000000000000       0x26 /home/shoaib/bl_iot_sdk/customer_app/sdk_app_helloworld/build_out/bl602_std/libbl602_std.a(bl602_ef_ctrl.o)
 .text.EF_Ctrl_Read_Secure_Cfg
                0x0000000000000000       0x40 /home/shoaib/bl_iot_sdk/customer_app/sdk_app_helloworld/build_out/bl602_std/libbl602_std.a(bl602_ef_ctrl.o)
 .text.EF_Ctrl_Read_Secure_Boot
                0x0000000000000000       0x3c /home/shoaib/bl_iot_sdk/customer_app/sdk_app_helloworld/build_out/bl602_std/libbl602_std.a(bl602_ef_ctrl.o)
 .text.EF_Ctrl_Get_Trim_Enable
                0x0000000000000000       0x1c /home/shoaib/bl_iot_sdk/customer_app/sdk_app_helloworld/build_out/bl602_std/libbl602_std.a(bl602_ef_ctrl.o)
 .text.EF_Ctrl_Read_Ana_Trim
                0x0000000000000000       0x2c /home/shoaib/bl_iot_sdk/customer_app/sdk_app_helloworld/build_out/bl602_std/libbl602_std.a(bl602_ef_ctrl.o)
 .text.EF_Ctrl_Read_Sw_Usage
                0x0000000000000000       0x2c /home/shoaib/bl_iot_sdk/customer_app/sdk_app_helloworld/build_out/bl602_std/libbl602_std.a(bl602_ef_ctrl.o)
 .text.EF_Ctrl_Read_MAC_Address
                0x0000000000000000       0xa4 /home/shoaib/bl_iot_sdk/customer_app/sdk_app_helloworld/build_out/bl602_std/libbl602_std.a(bl602_ef_ctrl.o)
 .text.EF_Ctrl_Read_Chip_ID
                0x0000000000000000       0x10 /home/shoaib/bl_iot_sdk/customer_app/sdk_app_helloworld/build_out/bl602_std/libbl602_std.a(bl602_ef_ctrl.o)
 .text.EF_Ctrl_Read_MAC_Address_Raw
                0x0000000000000000       0x4c /home/shoaib/bl_iot_sdk/customer_app/sdk_app_helloworld/build_out/bl602_std/libbl602_std.a(bl602_ef_ctrl.o)
 .text.EF_Ctrl_Is_MAC_Address_Slot_Empty
                0x0000000000000000       0x7c /home/shoaib/bl_iot_sdk/customer_app/sdk_app_helloworld/build_out/bl602_std/libbl602_std.a(bl602_ef_ctrl.o)
 .text.EF_Ctrl_Read_MAC_Address_Opt
                0x0000000000000000       0xf2 /home/shoaib/bl_iot_sdk/customer_app/sdk_app_helloworld/build_out/bl602_std/libbl602_std.a(bl602_ef_ctrl.o)
 .text.EF_Ctrl_Read_Device_Info
                0x0000000000000000       0x1e /home/shoaib/bl_iot_sdk/customer_app/sdk_app_helloworld/build_out/bl602_std/libbl602_std.a(bl602_ef_ctrl.o)
 .text.EF_Ctrl_Is_CapCode_Slot_Empty
                0x0000000000000000       0x58 /home/shoaib/bl_iot_sdk/customer_app/sdk_app_helloworld/build_out/bl602_std/libbl602_std.a(bl602_ef_ctrl.o)
 .text.EF_Ctrl_Write_CapCode_Opt
                0x0000000000000000       0xb6 /home/shoaib/bl_iot_sdk/customer_app/sdk_app_helloworld/build_out/bl602_std/libbl602_std.a(bl602_ef_ctrl.o)
 .text.EF_Ctrl_Read_CapCode_Opt
                0x0000000000000000       0x8c /home/shoaib/bl_iot_sdk/customer_app/sdk_app_helloworld/build_out/bl602_std/libbl602_std.a(bl602_ef_ctrl.o)
 .text.EF_Ctrl_Is_PowerOffset_Slot_Empty
                0x0000000000000000       0x78 /home/shoaib/bl_iot_sdk/customer_app/sdk_app_helloworld/build_out/bl602_std/libbl602_std.a(bl602_ef_ctrl.o)
 .text.EF_Ctrl_Read_PowerOffset_Opt
                0x0000000000000000       0xca /home/shoaib/bl_iot_sdk/customer_app/sdk_app_helloworld/build_out/bl602_std/libbl602_std.a(bl602_ef_ctrl.o)
 .text.EF_Ctrl_Read_AES_Key
                0x0000000000000000       0x38 /home/shoaib/bl_iot_sdk/customer_app/sdk_app_helloworld/build_out/bl602_std/libbl602_std.a(bl602_ef_ctrl.o)
 .text.EF_Ctrl_Read_Direct_R0
                0x0000000000000000       0x2e /home/shoaib/bl_iot_sdk/customer_app/sdk_app_helloworld/build_out/bl602_std/libbl602_std.a(bl602_ef_ctrl.o)
 .text.EF_Ctrl_Crc_Enable
                0x0000000000000000       0x22 /home/shoaib/bl_iot_sdk/customer_app/sdk_app_helloworld/build_out/bl602_std/libbl602_std.a(bl602_ef_ctrl.o)
 .text.EF_Ctrl_Crc_Is_Busy
                0x0000000000000000        0xc /home/shoaib/bl_iot_sdk/customer_app/sdk_app_helloworld/build_out/bl602_std/libbl602_std.a(bl602_ef_ctrl.o)
 .text.EF_Ctrl_Crc_Set_Golden
                0x0000000000000000        0xa /home/shoaib/bl_iot_sdk/customer_app/sdk_app_helloworld/build_out/bl602_std/libbl602_std.a(bl602_ef_ctrl.o)
 .text.EF_Ctrl_Crc_Result
                0x0000000000000000        0xe /home/shoaib/bl_iot_sdk/customer_app/sdk_app_helloworld/build_out/bl602_std/libbl602_std.a(bl602_ef_ctrl.o)
 .debug_info    0x0000000000000000     0x2549 /home/shoaib/bl_iot_sdk/customer_app/sdk_app_helloworld/build_out/bl602_std/libbl602_std.a(bl602_ef_ctrl.o)
 .debug_abbrev  0x0000000000000000      0x49d /home/shoaib/bl_iot_sdk/customer_app/sdk_app_helloworld/build_out/bl602_std/libbl602_std.a(bl602_ef_ctrl.o)
 .debug_loc     0x0000000000000000     0x2137 /home/shoaib/bl_iot_sdk/customer_app/sdk_app_helloworld/build_out/bl602_std/libbl602_std.a(bl602_ef_ctrl.o)
 .debug_aranges
                0x0000000000000000      0x1c8 /home/shoaib/bl_iot_sdk/customer_app/sdk_app_helloworld/build_out/bl602_std/libbl602_std.a(bl602_ef_ctrl.o)
 .debug_ranges  0x0000000000000000      0x248 /home/shoaib/bl_iot_sdk/customer_app/sdk_app_helloworld/build_out/bl602_std/libbl602_std.a(bl602_ef_ctrl.o)
 .debug_line    0x0000000000000000     0x3092 /home/shoaib/bl_iot_sdk/customer_app/sdk_app_helloworld/build_out/bl602_std/libbl602_std.a(bl602_ef_ctrl.o)
 .debug_str     0x0000000000000000     0x102a /home/shoaib/bl_iot_sdk/customer_app/sdk_app_helloworld/build_out/bl602_std/libbl602_std.a(bl602_ef_ctrl.o)
 .comment       0x0000000000000000       0x29 /home/shoaib/bl_iot_sdk/customer_app/sdk_app_helloworld/build_out/bl602_std/libbl602_std.a(bl602_ef_ctrl.o)
 .debug_frame   0x0000000000000000      0x704 /home/shoaib/bl_iot_sdk/customer_app/sdk_app_helloworld/build_out/bl602_std/libbl602_std.a(bl602_ef_ctrl.o)
 .riscv.attributes
                0x0000000000000000       0x2b /home/shoaib/bl_iot_sdk/customer_app/sdk_app_helloworld/build_out/bl602_std/libbl602_std.a(bl602_ef_ctrl.o)
 .text          0x0000000000000000        0x0 /home/shoaib/bl_iot_sdk/customer_app/sdk_app_helloworld/build_out/bl602_std/libbl602_std.a(bl602_romapi.o)
 .data          0x0000000000000000        0x0 /home/shoaib/bl_iot_sdk/customer_app/sdk_app_helloworld/build_out/bl602_std/libbl602_std.a(bl602_romapi.o)
 .bss           0x0000000000000000        0x0 /home/shoaib/bl_iot_sdk/customer_app/sdk_app_helloworld/build_out/bl602_std/libbl602_std.a(bl602_romapi.o)
 .sclock_rlt_code
                0x0000000000000000      0x154 /home/shoaib/bl_iot_sdk/customer_app/sdk_app_helloworld/build_out/bl602_std/libbl602_std.a(bl602_romapi.o)
 .text          0x0000000000000000        0x0 /home/shoaib/bl_iot_sdk/customer_app/sdk_app_helloworld/build_out/bltime/libbltime.a(bl_sys_time.o)
 .data          0x0000000000000000        0x0 /home/shoaib/bl_iot_sdk/customer_app/sdk_app_helloworld/build_out/bltime/libbltime.a(bl_sys_time.o)
 .bss           0x0000000000000000        0x0 /home/shoaib/bl_iot_sdk/customer_app/sdk_app_helloworld/build_out/bltime/libbltime.a(bl_sys_time.o)
 .text.bl_sys_time_update
                0x0000000000000000       0x38 /home/shoaib/bl_iot_sdk/customer_app/sdk_app_helloworld/build_out/bltime/libbltime.a(bl_sys_time.o)
 .text.bl_sys_time_get
                0x0000000000000000       0x58 /home/shoaib/bl_iot_sdk/customer_app/sdk_app_helloworld/build_out/bltime/libbltime.a(bl_sys_time.o)
 .text.bl_sys_time_sync_init
                0x0000000000000000       0x44 /home/shoaib/bl_iot_sdk/customer_app/sdk_app_helloworld/build_out/bltime/libbltime.a(bl_sys_time.o)
 .text.bl_sys_time_sync
                0x0000000000000000       0x26 /home/shoaib/bl_iot_sdk/customer_app/sdk_app_helloworld/build_out/bltime/libbltime.a(bl_sys_time.o)
 .sbss.epoch_time
                0x0000000000000000        0x8 /home/shoaib/bl_iot_sdk/customer_app/sdk_app_helloworld/build_out/bltime/libbltime.a(bl_sys_time.o)
 .sbss.time_synced
                0x0000000000000000        0x8 /home/shoaib/bl_iot_sdk/customer_app/sdk_app_helloworld/build_out/bltime/libbltime.a(bl_sys_time.o)
 .text          0x0000000000000000        0x0 /home/shoaib/bl_iot_sdk/customer_app/sdk_app_helloworld/build_out/freertos_riscv_ram/libfreertos_riscv_ram.a(misaligned_ldst.o)
 .data          0x0000000000000000        0x0 /home/shoaib/bl_iot_sdk/customer_app/sdk_app_helloworld/build_out/freertos_riscv_ram/libfreertos_riscv_ram.a(misaligned_ldst.o)
 .bss           0x0000000000000000        0x0 /home/shoaib/bl_iot_sdk/customer_app/sdk_app_helloworld/build_out/freertos_riscv_ram/libfreertos_riscv_ram.a(misaligned_ldst.o)
 .text.truly_illegal_insn
                0x0000000000000000        0x4 /home/shoaib/bl_iot_sdk/customer_app/sdk_app_helloworld/build_out/freertos_riscv_ram/libfreertos_riscv_ram.a(misaligned_ldst.o)
 .data          0x0000000000000000        0x0 /home/shoaib/bl_iot_sdk/customer_app/sdk_app_helloworld/build_out/freertos_riscv_ram/libfreertos_riscv_ram.a(fp_asm.o)
 .bss           0x0000000000000000        0x0 /home/shoaib/bl_iot_sdk/customer_app/sdk_app_helloworld/build_out/freertos_riscv_ram/libfreertos_riscv_ram.a(fp_asm.o)
 .text          0x0000000000000000        0x0 /home/shoaib/bl_iot_sdk/customer_app/sdk_app_helloworld/build_out/freertos_riscv_ram/libfreertos_riscv_ram.a(panic_c.o)
 .data          0x0000000000000000        0x0 /home/shoaib/bl_iot_sdk/customer_app/sdk_app_helloworld/build_out/freertos_riscv_ram/libfreertos_riscv_ram.a(panic_c.o)
 .bss           0x0000000000000000        0x0 /home/shoaib/bl_iot_sdk/customer_app/sdk_app_helloworld/build_out/freertos_riscv_ram/libfreertos_riscv_ram.a(panic_c.o)
 .text          0x0000000000000000        0x0 /home/shoaib/bl_iot_sdk/customer_app/sdk_app_helloworld/build_out/hal_drv/libhal_drv.a(bl_rtc.o)
 .data          0x0000000000000000        0x0 /home/shoaib/bl_iot_sdk/customer_app/sdk_app_helloworld/build_out/hal_drv/libhal_drv.a(bl_rtc.o)
 .bss           0x0000000000000000        0x0 /home/shoaib/bl_iot_sdk/customer_app/sdk_app_helloworld/build_out/hal_drv/libhal_drv.a(bl_rtc.o)
 .text.bl_rtc_init
                0x0000000000000000       0x22 /home/shoaib/bl_iot_sdk/customer_app/sdk_app_helloworld/build_out/hal_drv/libhal_drv.a(bl_rtc.o)
 .data          0x0000000000000000        0x0 /home/shoaib/bl_iot_sdk/toolchain/riscv/Linux/bin/../lib/gcc/riscv64-unknown-elf/8.3.0/../../../../riscv64-unknown-elf/lib/rv32imf/ilp32f/libm.a(lib_a-s_modf.o)
 .bss           0x0000000000000000        0x0 /home/shoaib/bl_iot_sdk/toolchain/riscv/Linux/bin/../lib/gcc/riscv64-unknown-elf/8.3.0/../../../../riscv64-unknown-elf/lib/rv32imf/ilp32f/libm.a(lib_a-s_modf.o)
 .text          0x0000000000000000       0x38 /home/shoaib/bl_iot_sdk/toolchain/riscv/Linux/bin/../lib/gcc/riscv64-unknown-elf/8.3.0/rv32imf/ilp32f/libgcc.a(_lshrdi3.o)
 .data          0x0000000000000000        0x0 /home/shoaib/bl_iot_sdk/toolchain/riscv/Linux/bin/../lib/gcc/riscv64-unknown-elf/8.3.0/rv32imf/ilp32f/libgcc.a(_lshrdi3.o)
 .bss           0x0000000000000000        0x0 /home/shoaib/bl_iot_sdk/toolchain/riscv/Linux/bin/../lib/gcc/riscv64-unknown-elf/8.3.0/rv32imf/ilp32f/libgcc.a(_lshrdi3.o)
 .debug_info    0x0000000000000000      0xc72 /home/shoaib/bl_iot_sdk/toolchain/riscv/Linux/bin/../lib/gcc/riscv64-unknown-elf/8.3.0/rv32imf/ilp32f/libgcc.a(_lshrdi3.o)
 .debug_abbrev  0x0000000000000000      0x275 /home/shoaib/bl_iot_sdk/toolchain/riscv/Linux/bin/../lib/gcc/riscv64-unknown-elf/8.3.0/rv32imf/ilp32f/libgcc.a(_lshrdi3.o)
 .debug_loc     0x0000000000000000       0x7e /home/shoaib/bl_iot_sdk/toolchain/riscv/Linux/bin/../lib/gcc/riscv64-unknown-elf/8.3.0/rv32imf/ilp32f/libgcc.a(_lshrdi3.o)
 .debug_aranges
                0x0000000000000000       0x20 /home/shoaib/bl_iot_sdk/toolchain/riscv/Linux/bin/../lib/gcc/riscv64-unknown-elf/8.3.0/rv32imf/ilp32f/libgcc.a(_lshrdi3.o)
 .debug_line    0x0000000000000000      0x40c /home/shoaib/bl_iot_sdk/toolchain/riscv/Linux/bin/../lib/gcc/riscv64-unknown-elf/8.3.0/rv32imf/ilp32f/libgcc.a(_lshrdi3.o)
 .debug_str     0x0000000000000000      0x837 /home/shoaib/bl_iot_sdk/toolchain/riscv/Linux/bin/../lib/gcc/riscv64-unknown-elf/8.3.0/rv32imf/ilp32f/libgcc.a(_lshrdi3.o)
 .comment       0x0000000000000000       0x29 /home/shoaib/bl_iot_sdk/toolchain/riscv/Linux/bin/../lib/gcc/riscv64-unknown-elf/8.3.0/rv32imf/ilp32f/libgcc.a(_lshrdi3.o)
 .debug_frame   0x0000000000000000       0x20 /home/shoaib/bl_iot_sdk/toolchain/riscv/Linux/bin/../lib/gcc/riscv64-unknown-elf/8.3.0/rv32imf/ilp32f/libgcc.a(_lshrdi3.o)
 .riscv.attributes
                0x0000000000000000       0x26 /home/shoaib/bl_iot_sdk/toolchain/riscv/Linux/bin/../lib/gcc/riscv64-unknown-elf/8.3.0/rv32imf/ilp32f/libgcc.a(_lshrdi3.o)
 .text          0x0000000000000000       0x38 /home/shoaib/bl_iot_sdk/toolchain/riscv/Linux/bin/../lib/gcc/riscv64-unknown-elf/8.3.0/rv32imf/ilp32f/libgcc.a(_ashldi3.o)
 .data          0x0000000000000000        0x0 /home/shoaib/bl_iot_sdk/toolchain/riscv/Linux/bin/../lib/gcc/riscv64-unknown-elf/8.3.0/rv32imf/ilp32f/libgcc.a(_ashldi3.o)
 .bss           0x0000000000000000        0x0 /home/shoaib/bl_iot_sdk/toolchain/riscv/Linux/bin/../lib/gcc/riscv64-unknown-elf/8.3.0/rv32imf/ilp32f/libgcc.a(_ashldi3.o)
 .debug_info    0x0000000000000000      0xc72 /home/shoaib/bl_iot_sdk/toolchain/riscv/Linux/bin/../lib/gcc/riscv64-unknown-elf/8.3.0/rv32imf/ilp32f/libgcc.a(_ashldi3.o)
 .debug_abbrev  0x0000000000000000      0x275 /home/shoaib/bl_iot_sdk/toolchain/riscv/Linux/bin/../lib/gcc/riscv64-unknown-elf/8.3.0/rv32imf/ilp32f/libgcc.a(_ashldi3.o)
 .debug_loc     0x0000000000000000       0x7e /home/shoaib/bl_iot_sdk/toolchain/riscv/Linux/bin/../lib/gcc/riscv64-unknown-elf/8.3.0/rv32imf/ilp32f/libgcc.a(_ashldi3.o)
 .debug_aranges
                0x0000000000000000       0x20 /home/shoaib/bl_iot_sdk/toolchain/riscv/Linux/bin/../lib/gcc/riscv64-unknown-elf/8.3.0/rv32imf/ilp32f/libgcc.a(_ashldi3.o)
 .debug_line    0x0000000000000000      0x40c /home/shoaib/bl_iot_sdk/toolchain/riscv/Linux/bin/../lib/gcc/riscv64-unknown-elf/8.3.0/rv32imf/ilp32f/libgcc.a(_ashldi3.o)
 .debug_str     0x0000000000000000      0x837 /home/shoaib/bl_iot_sdk/toolchain/riscv/Linux/bin/../lib/gcc/riscv64-unknown-elf/8.3.0/rv32imf/ilp32f/libgcc.a(_ashldi3.o)
 .comment       0x0000000000000000       0x29 /home/shoaib/bl_iot_sdk/toolchain/riscv/Linux/bin/../lib/gcc/riscv64-unknown-elf/8.3.0/rv32imf/ilp32f/libgcc.a(_ashldi3.o)
 .debug_frame   0x0000000000000000       0x20 /home/shoaib/bl_iot_sdk/toolchain/riscv/Linux/bin/../lib/gcc/riscv64-unknown-elf/8.3.0/rv32imf/ilp32f/libgcc.a(_ashldi3.o)
 .riscv.attributes
                0x0000000000000000       0x26 /home/shoaib/bl_iot_sdk/toolchain/riscv/Linux/bin/../lib/gcc/riscv64-unknown-elf/8.3.0/rv32imf/ilp32f/libgcc.a(_ashldi3.o)
 .data          0x0000000000000000        0x0 /home/shoaib/bl_iot_sdk/toolchain/riscv/Linux/bin/../lib/gcc/riscv64-unknown-elf/8.3.0/rv32imf/ilp32f/libgcc.a(_clzsi2.o)
 .bss           0x0000000000000000        0x0 /home/shoaib/bl_iot_sdk/toolchain/riscv/Linux/bin/../lib/gcc/riscv64-unknown-elf/8.3.0/rv32imf/ilp32f/libgcc.a(_clzsi2.o)
 .data          0x0000000000000000        0x0 /home/shoaib/bl_iot_sdk/toolchain/riscv/Linux/bin/../lib/gcc/riscv64-unknown-elf/8.3.0/rv32imf/ilp32f/libgcc.a(_udivdi3.o)
 .bss           0x0000000000000000        0x0 /home/shoaib/bl_iot_sdk/toolchain/riscv/Linux/bin/../lib/gcc/riscv64-unknown-elf/8.3.0/rv32imf/ilp32f/libgcc.a(_udivdi3.o)
 .eh_frame      0x0000000000000000       0x28 /home/shoaib/bl_iot_sdk/toolchain/riscv/Linux/bin/../lib/gcc/riscv64-unknown-elf/8.3.0/rv32imf/ilp32f/libgcc.a(_udivdi3.o)
 .data          0x0000000000000000        0x0 /home/shoaib/bl_iot_sdk/toolchain/riscv/Linux/bin/../lib/gcc/riscv64-unknown-elf/8.3.0/rv32imf/ilp32f/libgcc.a(_umoddi3.o)
 .bss           0x0000000000000000        0x0 /home/shoaib/bl_iot_sdk/toolchain/riscv/Linux/bin/../lib/gcc/riscv64-unknown-elf/8.3.0/rv32imf/ilp32f/libgcc.a(_umoddi3.o)
 .eh_frame      0x0000000000000000       0x28 /home/shoaib/bl_iot_sdk/toolchain/riscv/Linux/bin/../lib/gcc/riscv64-unknown-elf/8.3.0/rv32imf/ilp32f/libgcc.a(_umoddi3.o)
 .data          0x0000000000000000        0x0 /home/shoaib/bl_iot_sdk/toolchain/riscv/Linux/bin/../lib/gcc/riscv64-unknown-elf/8.3.0/rv32imf/ilp32f/libgcc.a(adddf3.o)
 .bss           0x0000000000000000        0x0 /home/shoaib/bl_iot_sdk/toolchain/riscv/Linux/bin/../lib/gcc/riscv64-unknown-elf/8.3.0/rv32imf/ilp32f/libgcc.a(adddf3.o)
 .data          0x0000000000000000        0x0 /home/shoaib/bl_iot_sdk/toolchain/riscv/Linux/bin/../lib/gcc/riscv64-unknown-elf/8.3.0/rv32imf/ilp32f/libgcc.a(divdf3.o)
 .bss           0x0000000000000000        0x0 /home/shoaib/bl_iot_sdk/toolchain/riscv/Linux/bin/../lib/gcc/riscv64-unknown-elf/8.3.0/rv32imf/ilp32f/libgcc.a(divdf3.o)
 .data          0x0000000000000000        0x0 /home/shoaib/bl_iot_sdk/toolchain/riscv/Linux/bin/../lib/gcc/riscv64-unknown-elf/8.3.0/rv32imf/ilp32f/libgcc.a(eqdf2.o)
 .bss           0x0000000000000000        0x0 /home/shoaib/bl_iot_sdk/toolchain/riscv/Linux/bin/../lib/gcc/riscv64-unknown-elf/8.3.0/rv32imf/ilp32f/libgcc.a(eqdf2.o)
 .data          0x0000000000000000        0x0 /home/shoaib/bl_iot_sdk/toolchain/riscv/Linux/bin/../lib/gcc/riscv64-unknown-elf/8.3.0/rv32imf/ilp32f/libgcc.a(gedf2.o)
 .bss           0x0000000000000000        0x0 /home/shoaib/bl_iot_sdk/toolchain/riscv/Linux/bin/../lib/gcc/riscv64-unknown-elf/8.3.0/rv32imf/ilp32f/libgcc.a(gedf2.o)
 .data          0x0000000000000000        0x0 /home/shoaib/bl_iot_sdk/toolchain/riscv/Linux/bin/../lib/gcc/riscv64-unknown-elf/8.3.0/rv32imf/ilp32f/libgcc.a(ledf2.o)
 .bss           0x0000000000000000        0x0 /home/shoaib/bl_iot_sdk/toolchain/riscv/Linux/bin/../lib/gcc/riscv64-unknown-elf/8.3.0/rv32imf/ilp32f/libgcc.a(ledf2.o)
 .data          0x0000000000000000        0x0 /home/shoaib/bl_iot_sdk/toolchain/riscv/Linux/bin/../lib/gcc/riscv64-unknown-elf/8.3.0/rv32imf/ilp32f/libgcc.a(muldf3.o)
 .bss           0x0000000000000000        0x0 /home/shoaib/bl_iot_sdk/toolchain/riscv/Linux/bin/../lib/gcc/riscv64-unknown-elf/8.3.0/rv32imf/ilp32f/libgcc.a(muldf3.o)
 .data          0x0000000000000000        0x0 /home/shoaib/bl_iot_sdk/toolchain/riscv/Linux/bin/../lib/gcc/riscv64-unknown-elf/8.3.0/rv32imf/ilp32f/libgcc.a(subdf3.o)
 .bss           0x0000000000000000        0x0 /home/shoaib/bl_iot_sdk/toolchain/riscv/Linux/bin/../lib/gcc/riscv64-unknown-elf/8.3.0/rv32imf/ilp32f/libgcc.a(subdf3.o)
 .data          0x0000000000000000        0x0 /home/shoaib/bl_iot_sdk/toolchain/riscv/Linux/bin/../lib/gcc/riscv64-unknown-elf/8.3.0/rv32imf/ilp32f/libgcc.a(fixdfsi.o)
 .bss           0x0000000000000000        0x0 /home/shoaib/bl_iot_sdk/toolchain/riscv/Linux/bin/../lib/gcc/riscv64-unknown-elf/8.3.0/rv32imf/ilp32f/libgcc.a(fixdfsi.o)
 .text          0x0000000000000000        0x0 /home/shoaib/bl_iot_sdk/toolchain/riscv/Linux/bin/../lib/gcc/riscv64-unknown-elf/8.3.0/rv32imf/ilp32f/libgcc.a(_clz.o)
 .data          0x0000000000000000        0x0 /home/shoaib/bl_iot_sdk/toolchain/riscv/Linux/bin/../lib/gcc/riscv64-unknown-elf/8.3.0/rv32imf/ilp32f/libgcc.a(_clz.o)
 .bss           0x0000000000000000        0x0 /home/shoaib/bl_iot_sdk/toolchain/riscv/Linux/bin/../lib/gcc/riscv64-unknown-elf/8.3.0/rv32imf/ilp32f/libgcc.a(_clz.o)
 .data          0x0000000000000000        0x0 /home/shoaib/bl_iot_sdk/toolchain/riscv/Linux/bin/../lib/gcc/riscv64-unknown-elf/8.3.0/../../../../riscv64-unknown-elf/lib/rv32imf/ilp32f/libc.a(lib_a-memcpy.o)
 .bss           0x0000000000000000        0x0 /home/shoaib/bl_iot_sdk/toolchain/riscv/Linux/bin/../lib/gcc/riscv64-unknown-elf/8.3.0/../../../../riscv64-unknown-elf/lib/rv32imf/ilp32f/libc.a(lib_a-memcpy.o)
 .data          0x0000000000000000        0x0 /home/shoaib/bl_iot_sdk/toolchain/riscv/Linux/bin/../lib/gcc/riscv64-unknown-elf/8.3.0/../../../../riscv64-unknown-elf/lib/rv32imf/ilp32f/libc.a(lib_a-memset.o)
 .bss           0x0000000000000000        0x0 /home/shoaib/bl_iot_sdk/toolchain/riscv/Linux/bin/../lib/gcc/riscv64-unknown-elf/8.3.0/../../../../riscv64-unknown-elf/lib/rv32imf/ilp32f/libc.a(lib_a-memset.o)
 .data          0x0000000000000000        0x0 /home/shoaib/bl_iot_sdk/toolchain/riscv/Linux/bin/../lib/gcc/riscv64-unknown-elf/8.3.0/../../../../riscv64-unknown-elf/lib/rv32imf/ilp32f/libc.a(lib_a-rand.o)
 .bss           0x0000000000000000        0x0 /home/shoaib/bl_iot_sdk/toolchain/riscv/Linux/bin/../lib/gcc/riscv64-unknown-elf/8.3.0/../../../../riscv64-unknown-elf/lib/rv32imf/ilp32f/libc.a(lib_a-rand.o)
 .text          0x0000000000000000      0x17c /home/shoaib/bl_iot_sdk/toolchain/riscv/Linux/bin/../lib/gcc/riscv64-unknown-elf/8.3.0/../../../../riscv64-unknown-elf/lib/rv32imf/ilp32f/libc.a(lib_a-strcmp.o)
 .data          0x0000000000000000        0x0 /home/shoaib/bl_iot_sdk/toolchain/riscv/Linux/bin/../lib/gcc/riscv64-unknown-elf/8.3.0/../../../../riscv64-unknown-elf/lib/rv32imf/ilp32f/libc.a(lib_a-strcmp.o)
 .bss           0x0000000000000000        0x0 /home/shoaib/bl_iot_sdk/toolchain/riscv/Linux/bin/../lib/gcc/riscv64-unknown-elf/8.3.0/../../../../riscv64-unknown-elf/lib/rv32imf/ilp32f/libc.a(lib_a-strcmp.o)
 .riscv.attributes
                0x0000000000000000       0x24 /home/shoaib/bl_iot_sdk/toolchain/riscv/Linux/bin/../lib/gcc/riscv64-unknown-elf/8.3.0/../../../../riscv64-unknown-elf/lib/rv32imf/ilp32f/libc.a(lib_a-strcmp.o)
 .text          0x0000000000000000       0xb0 /home/shoaib/bl_iot_sdk/toolchain/riscv/Linux/bin/../lib/gcc/riscv64-unknown-elf/8.3.0/../../../../riscv64-unknown-elf/lib/rv32imf/ilp32f/libc.a(lib_a-strcpy.o)
 .data          0x0000000000000000        0x0 /home/shoaib/bl_iot_sdk/toolchain/riscv/Linux/bin/../lib/gcc/riscv64-unknown-elf/8.3.0/../../../../riscv64-unknown-elf/lib/rv32imf/ilp32f/libc.a(lib_a-strcpy.o)
 .bss           0x0000000000000000        0x0 /home/shoaib/bl_iot_sdk/toolchain/riscv/Linux/bin/../lib/gcc/riscv64-unknown-elf/8.3.0/../../../../riscv64-unknown-elf/lib/rv32imf/ilp32f/libc.a(lib_a-strcpy.o)
 .comment       0x0000000000000000       0x29 /home/shoaib/bl_iot_sdk/toolchain/riscv/Linux/bin/../lib/gcc/riscv64-unknown-elf/8.3.0/../../../../riscv64-unknown-elf/lib/rv32imf/ilp32f/libc.a(lib_a-strcpy.o)
 .riscv.attributes
                0x0000000000000000       0x26 /home/shoaib/bl_iot_sdk/toolchain/riscv/Linux/bin/../lib/gcc/riscv64-unknown-elf/8.3.0/../../../../riscv64-unknown-elf/lib/rv32imf/ilp32f/libc.a(lib_a-strcpy.o)
 .data          0x0000000000000000        0x0 /home/shoaib/bl_iot_sdk/toolchain/riscv/Linux/bin/../lib/gcc/riscv64-unknown-elf/8.3.0/../../../../riscv64-unknown-elf/lib/rv32imf/ilp32f/libc.a(lib_a-strlen.o)
 .bss           0x0000000000000000        0x0 /home/shoaib/bl_iot_sdk/toolchain/riscv/Linux/bin/../lib/gcc/riscv64-unknown-elf/8.3.0/../../../../riscv64-unknown-elf/lib/rv32imf/ilp32f/libc.a(lib_a-strlen.o)
 .data          0x0000000000000000        0x0 /home/shoaib/bl_iot_sdk/toolchain/riscv/Linux/bin/../lib/gcc/riscv64-unknown-elf/8.3.0/../../../../riscv64-unknown-elf/lib/rv32imf/ilp32f/libc.a(lib_a-strnlen.o)
 .bss           0x0000000000000000        0x0 /home/shoaib/bl_iot_sdk/toolchain/riscv/Linux/bin/../lib/gcc/riscv64-unknown-elf/8.3.0/../../../../riscv64-unknown-elf/lib/rv32imf/ilp32f/libc.a(lib_a-strnlen.o)
 .text          0x0000000000000000        0x0 /home/shoaib/bl_iot_sdk/toolchain/riscv/Linux/bin/../lib/gcc/riscv64-unknown-elf/8.3.0/../../../../riscv64-unknown-elf/lib/rv32imf/ilp32f/libc.a(lib_a-impure.o)
 .bss           0x0000000000000000        0x0 /home/shoaib/bl_iot_sdk/toolchain/riscv/Linux/bin/../lib/gcc/riscv64-unknown-elf/8.3.0/../../../../riscv64-unknown-elf/lib/rv32imf/ilp32f/libc.a(lib_a-impure.o)
 .srodata       0x0000000000000000        0x4 /home/shoaib/bl_iot_sdk/toolchain/riscv/Linux/bin/../lib/gcc/riscv64-unknown-elf/8.3.0/../../../../riscv64-unknown-elf/lib/rv32imf/ilp32f/libc.a(lib_a-impure.o)

Memory Configuration

Name             Origin             Length             Attributes
rom              0x0000000021015000 0x000000000000b000 axrl !w
flash            0x0000000023000000 0x0000000000400000 axrl !w
ram_tcm          0x000000004200c000 0x0000000000024000 axw
ram_wifi         0x0000000042030000 0x000000000001a000 axw
*default*        0x0000000000000000 0xffffffffffffffff

Linker script and memory map

START GROUP
LOAD /home/shoaib/bl_iot_sdk/customer_app/sdk_app_helloworld/build_out/bl602/libbl602.a
LOAD /home/shoaib/bl_iot_sdk/customer_app/sdk_app_helloworld/build_out/bl602_std/libbl602_std.a
LOAD /home/shoaib/bl_iot_sdk/customer_app/sdk_app_helloworld/build_out/blfdt/libblfdt.a
LOAD /home/shoaib/bl_iot_sdk/customer_app/sdk_app_helloworld/build_out/blmtd/libblmtd.a
LOAD /home/shoaib/bl_iot_sdk/customer_app/sdk_app_helloworld/build_out/blog/libblog.a
LOAD /home/shoaib/bl_iot_sdk/customer_app/sdk_app_helloworld/build_out/blog_testc/libblog_testc.a
LOAD /home/shoaib/bl_iot_sdk/customer_app/sdk_app_helloworld/build_out/bloop/libbloop.a
LOAD /home/shoaib/bl_iot_sdk/customer_app/sdk_app_helloworld/build_out/bltime/libbltime.a
LOAD /home/shoaib/bl_iot_sdk/customer_app/sdk_app_helloworld/build_out/cli/libcli.a
LOAD /home/shoaib/bl_iot_sdk/customer_app/sdk_app_helloworld/build_out/freertos_riscv_ram/libfreertos_riscv_ram.a
LOAD /home/shoaib/bl_iot_sdk/customer_app/sdk_app_helloworld/build_out/hal_drv/libhal_drv.a
LOAD /home/shoaib/bl_iot_sdk/customer_app/sdk_app_helloworld/build_out/looprt/liblooprt.a
LOAD /home/shoaib/bl_iot_sdk/customer_app/sdk_app_helloworld/build_out/loopset/libloopset.a
LOAD /home/shoaib/bl_iot_sdk/customer_app/sdk_app_helloworld/build_out/romfs/libromfs.a
LOAD /home/shoaib/bl_iot_sdk/customer_app/sdk_app_helloworld/build_out/sdk_app_helloworld/libsdk_app_helloworld.a
LOAD /home/shoaib/bl_iot_sdk/customer_app/sdk_app_helloworld/build_out/utils/libutils.a
LOAD /home/shoaib/bl_iot_sdk/customer_app/sdk_app_helloworld/build_out/vfs/libvfs.a
LOAD /home/shoaib/bl_iot_sdk/customer_app/sdk_app_helloworld/build_out/yloop/libyloop.a
END GROUP
LOAD /home/shoaib/bl_iot_sdk/toolchain/riscv/Linux/bin/../lib/gcc/riscv64-unknown-elf/8.3.0/../../../../riscv64-unknown-elf/lib/rv32imf/ilp32f/libm.a
LOAD /home/shoaib/bl_iot_sdk/toolchain/riscv/Linux/bin/../lib/gcc/riscv64-unknown-elf/8.3.0/rv32imf/ilp32f/libgcc.a
START GROUP
LOAD /home/shoaib/bl_iot_sdk/toolchain/riscv/Linux/bin/../lib/gcc/riscv64-unknown-elf/8.3.0/../../../../riscv64-unknown-elf/lib/rv32imf/ilp32f/libc.a
LOAD /home/shoaib/bl_iot_sdk/toolchain/riscv/Linux/bin/../lib/gcc/riscv64-unknown-elf/8.3.0/../../../../riscv64-unknown-elf/lib/rv32imf/ilp32f/libgloss.a
END GROUP
LOAD /home/shoaib/bl_iot_sdk/toolchain/riscv/Linux/bin/../lib/gcc/riscv64-unknown-elf/8.3.0/rv32imf/ilp32f/libgcc.a
                0x0000000000000000                __EM_SIZE = DEFINED (ble_controller_init)?0x2000:0x0
                0x0000000000000800                __stack_size = DEFINED (__stack_size)?__stack_size:0x800
                0x0000000042049c00                BOOT2_PT_ADDR = 0x42049c00
                0x0000000042049c18                BOOT2_FLASHCFG_ADDR = 0x42049c18

.init           0x0000000023000000      0x124
 *(SORT_NONE(.init))
 .init          0x0000000023000000      0x124 /home/shoaib/bl_iot_sdk/customer_app/sdk_app_helloworld/build_out/bl602/libbl602.a(start.o)
                0x0000000023000000                bl602_start

.text           0x0000000023000200     0x70c4
 *(.text.unlikely .text.unlikely.*)
 *(.text.startup .text.startup.*)
 *(.text .text.*)
 .text.hal_boot2_get_flash_addr
                0x0000000023000200       0x1c /home/shoaib/bl_iot_sdk/customer_app/sdk_app_helloworld/build_out/hal_drv/libhal_drv.a(hal_boot2.o)
                0x0000000023000200                hal_boot2_get_flash_addr
 .text.read_humidity
                0x000000002300021c       0x24 /home/shoaib/bl_iot_sdk/customer_app/sdk_app_helloworld/build_out/sdk_app_helloworld/libsdk_app_helloworld.a(main.o)
                0x000000002300021c                read_humidity
 .text.read_temperature
                0x0000000023000240       0x22 /home/shoaib/bl_iot_sdk/customer_app/sdk_app_helloworld/build_out/sdk_app_helloworld/libsdk_app_helloworld.a(main.o)
                0x0000000023000240                read_temperature
 .text.bfl_main
                0x0000000023000262       0x66 /home/shoaib/bl_iot_sdk/customer_app/sdk_app_helloworld/build_out/sdk_app_helloworld/libsdk_app_helloworld.a(main.o)
                0x0000000023000262                bfl_main
 .text.task_led
                0x00000000230002c8       0xc2 /home/shoaib/bl_iot_sdk/customer_app/sdk_app_helloworld/build_out/sdk_app_helloworld/libsdk_app_helloworld.a(led.o)
                0x00000000230002c8                task_led
 .text.format_int
                0x000000002300038a      0x25a /home/shoaib/bl_iot_sdk/customer_app/sdk_app_helloworld/build_out/bl602/libbl602.a(debug.o)
 .text.cvt      0x00000000230005e4      0x23a /home/shoaib/bl_iot_sdk/customer_app/sdk_app_helloworld/build_out/bl602/libbl602.a(debug.o)
 .text.ecvtbuf  0x000000002300081e        0x4 /home/shoaib/bl_iot_sdk/customer_app/sdk_app_helloworld/build_out/bl602/libbl602.a(debug.o)
                0x000000002300081e                ecvtbuf
 .text.fcvtbuf  0x0000000023000822        0x4 /home/shoaib/bl_iot_sdk/customer_app/sdk_app_helloworld/build_out/bl602/libbl602.a(debug.o)
                0x0000000023000822                fcvtbuf
 .text.flt      0x0000000023000826      0x436 /home/shoaib/bl_iot_sdk/customer_app/sdk_app_helloworld/build_out/bl602/libbl602.a(debug.o)
 .text.vsnprintf
                0x0000000023000c5c      0x4d2 /home/shoaib/bl_iot_sdk/customer_app/sdk_app_helloworld/build_out/bl602/libbl602.a(debug.o)
                0x0000000023000c5c                vsnprintf
 .text.vsprintf
                0x000000002300112e        0xa /home/shoaib/bl_iot_sdk/customer_app/sdk_app_helloworld/build_out/bl602/libbl602.a(debug.o)
                0x000000002300112e                vsprintf
 .text.vprint   0x0000000023001138       0x3c /home/shoaib/bl_iot_sdk/customer_app/sdk_app_helloworld/build_out/bl602/libbl602.a(debug.o)
                0x0000000023001138                vprint
 .text.puts     0x0000000023001174       0x38 /home/shoaib/bl_iot_sdk/customer_app/sdk_app_helloworld/build_out/bl602/libbl602.a(debug.o)
                0x0000000023001174                puts
 .text.printf   0x00000000230011ac       0x2a /home/shoaib/bl_iot_sdk/customer_app/sdk_app_helloworld/build_out/bl602/libbl602.a(debug.o)
                0x00000000230011ac                printf
 .text.prvResetNextTaskUnblockTime.part.0
                0x00000000230011d6       0x10 /home/shoaib/bl_iot_sdk/customer_app/sdk_app_helloworld/build_out/freertos_riscv_ram/libfreertos_riscv_ram.a(tasks.o)
 .text.prvInitialiseNewTask.isra.2
                0x00000000230011e6       0xce /home/shoaib/bl_iot_sdk/customer_app/sdk_app_helloworld/build_out/freertos_riscv_ram/libfreertos_riscv_ram.a(tasks.o)
 .text.prvDeleteTCB
                0x00000000230012b4       0x36 /home/shoaib/bl_iot_sdk/customer_app/sdk_app_helloworld/build_out/freertos_riscv_ram/libfreertos_riscv_ram.a(tasks.o)
 .text.prvAddCurrentTaskToDelayedList
                0x00000000230012ea       0xaa /home/shoaib/bl_iot_sdk/customer_app/sdk_app_helloworld/build_out/freertos_riscv_ram/libfreertos_riscv_ram.a(tasks.o)
 .text.vTaskEnterCritical.part.7
                0x0000000023001394       0x10 /home/shoaib/bl_iot_sdk/customer_app/sdk_app_helloworld/build_out/freertos_riscv_ram/libfreertos_riscv_ram.a(tasks.o)
 .text.vTaskExitCritical.part.8
                0x00000000230013a4       0x18 /home/shoaib/bl_iot_sdk/customer_app/sdk_app_helloworld/build_out/freertos_riscv_ram/libfreertos_riscv_ram.a(tasks.o)
 .text.prvAddNewTaskToReadyList
                0x00000000230013bc      0x134 /home/shoaib/bl_iot_sdk/customer_app/sdk_app_helloworld/build_out/freertos_riscv_ram/libfreertos_riscv_ram.a(tasks.o)
 .text.prvIdleTask
                0x00000000230014f0       0x88 /home/shoaib/bl_iot_sdk/customer_app/sdk_app_helloworld/build_out/freertos_riscv_ram/libfreertos_riscv_ram.a(tasks.o)
 .text.xTaskCreateStatic
                0x0000000023001578       0x9c /home/shoaib/bl_iot_sdk/customer_app/sdk_app_helloworld/build_out/freertos_riscv_ram/libfreertos_riscv_ram.a(tasks.o)
                0x0000000023001578                xTaskCreateStatic
 .text.vTaskStartScheduler
                0x0000000023001614       0x66 /home/shoaib/bl_iot_sdk/customer_app/sdk_app_helloworld/build_out/freertos_riscv_ram/libfreertos_riscv_ram.a(tasks.o)
                0x0000000023001614                vTaskStartScheduler
 .text.vTaskSuspendAll
                0x000000002300167a        0xc /home/shoaib/bl_iot_sdk/customer_app/sdk_app_helloworld/build_out/freertos_riscv_ram/libfreertos_riscv_ram.a(tasks.o)
                0x000000002300167a                vTaskSuspendAll
 .text.xTaskGetTickCount
                0x0000000023001686        0x6 /home/shoaib/bl_iot_sdk/customer_app/sdk_app_helloworld/build_out/freertos_riscv_ram/libfreertos_riscv_ram.a(tasks.o)
                0x0000000023001686                xTaskGetTickCount
 .text.xTaskIncrementTick
                0x000000002300168c      0x162 /home/shoaib/bl_iot_sdk/customer_app/sdk_app_helloworld/build_out/freertos_riscv_ram/libfreertos_riscv_ram.a(tasks.o)
                0x000000002300168c                xTaskIncrementTick
 .text.xTaskResumeAll
                0x00000000230017ee      0x122 /home/shoaib/bl_iot_sdk/customer_app/sdk_app_helloworld/build_out/freertos_riscv_ram/libfreertos_riscv_ram.a(tasks.o)
                0x00000000230017ee                xTaskResumeAll
 .text.vTaskDelay
                0x0000000023001910       0x3c /home/shoaib/bl_iot_sdk/customer_app/sdk_app_helloworld/build_out/freertos_riscv_ram/libfreertos_riscv_ram.a(tasks.o)
                0x0000000023001910                vTaskDelay
 .text.vTaskSwitchContext
                0x000000002300194c       0xb2 /home/shoaib/bl_iot_sdk/customer_app/sdk_app_helloworld/build_out/freertos_riscv_ram/libfreertos_riscv_ram.a(tasks.o)
                0x000000002300194c                vTaskSwitchContext
 .text.vTaskPlaceOnEventList
                0x00000000230019fe       0x2c /home/shoaib/bl_iot_sdk/customer_app/sdk_app_helloworld/build_out/freertos_riscv_ram/libfreertos_riscv_ram.a(tasks.o)
                0x00000000230019fe                vTaskPlaceOnEventList
 .text.vTaskPlaceOnEventListRestricted
                0x0000000023001a2a       0x36 /home/shoaib/bl_iot_sdk/customer_app/sdk_app_helloworld/build_out/freertos_riscv_ram/libfreertos_riscv_ram.a(tasks.o)
                0x0000000023001a2a                vTaskPlaceOnEventListRestricted
 .text.xTaskRemoveFromEventList
                0x0000000023001a60       0x84 /home/shoaib/bl_iot_sdk/customer_app/sdk_app_helloworld/build_out/freertos_riscv_ram/libfreertos_riscv_ram.a(tasks.o)
                0x0000000023001a60                xTaskRemoveFromEventList
 .text.vTaskInternalSetTimeOutState
                0x0000000023001ae4        0xe /home/shoaib/bl_iot_sdk/customer_app/sdk_app_helloworld/build_out/freertos_riscv_ram/libfreertos_riscv_ram.a(tasks.o)
                0x0000000023001ae4                vTaskInternalSetTimeOutState
 .text.xTaskCheckForTimeOut
                0x0000000023001af2       0xa2 /home/shoaib/bl_iot_sdk/customer_app/sdk_app_helloworld/build_out/freertos_riscv_ram/libfreertos_riscv_ram.a(tasks.o)
                0x0000000023001af2                xTaskCheckForTimeOut
 .text.vTaskMissedYield
                0x0000000023001b94        0x8 /home/shoaib/bl_iot_sdk/customer_app/sdk_app_helloworld/build_out/freertos_riscv_ram/libfreertos_riscv_ram.a(tasks.o)
                0x0000000023001b94                vTaskMissedYield
 .text.xTaskGetSchedulerState
                0x0000000023001b9c       0x14 /home/shoaib/bl_iot_sdk/customer_app/sdk_app_helloworld/build_out/freertos_riscv_ram/libfreertos_riscv_ram.a(tasks.o)
                0x0000000023001b9c                xTaskGetSchedulerState
 .text.xTaskPriorityDisinherit
                0x0000000023001bb0       0xc4 /home/shoaib/bl_iot_sdk/customer_app/sdk_app_helloworld/build_out/freertos_riscv_ram/libfreertos_riscv_ram.a(tasks.o)
                0x0000000023001bb0                xTaskPriorityDisinherit
 .text.vTaskEnterCritical
                0x0000000023001c74       0x10 /home/shoaib/bl_iot_sdk/customer_app/sdk_app_helloworld/build_out/freertos_riscv_ram/libfreertos_riscv_ram.a(tasks.o)
                0x0000000023001c74                vTaskEnterCritical
 .text.vTaskExitCritical
                0x0000000023001c84       0x14 /home/shoaib/bl_iot_sdk/customer_app/sdk_app_helloworld/build_out/freertos_riscv_ram/libfreertos_riscv_ram.a(tasks.o)
                0x0000000023001c84                vTaskExitCritical
 .text.prvCheckForValidListAndQueue
                0x0000000023001c98       0x74 /home/shoaib/bl_iot_sdk/customer_app/sdk_app_helloworld/build_out/freertos_riscv_ram/libfreertos_riscv_ram.a(timers.o)
 .text.prvInsertTimerInActiveList
                0x0000000023001d0c       0x50 /home/shoaib/bl_iot_sdk/customer_app/sdk_app_helloworld/build_out/freertos_riscv_ram/libfreertos_riscv_ram.a(timers.o)
 .text.xTimerCreateTimerTask
                0x0000000023001d5c       0x52 /home/shoaib/bl_iot_sdk/customer_app/sdk_app_helloworld/build_out/freertos_riscv_ram/libfreertos_riscv_ram.a(timers.o)
                0x0000000023001d5c                xTimerCreateTimerTask
 .text.xTimerGenericCommand
                0x0000000023001dae       0x8e /home/shoaib/bl_iot_sdk/customer_app/sdk_app_helloworld/build_out/freertos_riscv_ram/libfreertos_riscv_ram.a(timers.o)
                0x0000000023001dae                xTimerGenericCommand
 .text.prvSwitchTimerLists
                0x0000000023001e3c       0x80 /home/shoaib/bl_iot_sdk/customer_app/sdk_app_helloworld/build_out/freertos_riscv_ram/libfreertos_riscv_ram.a(timers.o)
 .text.prvTimerTask
                0x0000000023001ebc      0x1d4 /home/shoaib/bl_iot_sdk/customer_app/sdk_app_helloworld/build_out/freertos_riscv_ram/libfreertos_riscv_ram.a(timers.o)
 .text.vPortSetupTimerInterrupt
                0x0000000023002090       0x46 /home/shoaib/bl_iot_sdk/customer_app/sdk_app_helloworld/build_out/freertos_riscv_ram/libfreertos_riscv_ram.a(port.o)
                0x0000000023002090                vPortSetupTimerInterrupt
 .text.xPortStartScheduler
                0x00000000230020d6       0x3e /home/shoaib/bl_iot_sdk/customer_app/sdk_app_helloworld/build_out/freertos_riscv_ram/libfreertos_riscv_ram.a(port.o)
                0x00000000230020d6                xPortStartScheduler
 *fill*         0x0000000023002114       0xec 
 .text          0x0000000023002200      0x538 /home/shoaib/bl_iot_sdk/customer_app/sdk_app_helloworld/build_out/freertos_riscv_ram/libfreertos_riscv_ram.a(portASM.o)
                0x0000000023002200                freertos_risc_v_trap_handler
                0x0000000023002500                xPortStartFirstTask
                0x0000000023002600                pxPortInitialiseStack
 .text.prvInsertBlockIntoFreeList
                0x0000000023002738       0x4a /home/shoaib/bl_iot_sdk/customer_app/sdk_app_helloworld/build_out/freertos_riscv_ram/libfreertos_riscv_ram.a(heap_5.o)
 .text.vPortFree
                0x0000000023002782       0x88 /home/shoaib/bl_iot_sdk/customer_app/sdk_app_helloworld/build_out/freertos_riscv_ram/libfreertos_riscv_ram.a(heap_5.o)
                0x0000000023002782                vPortFree
 .text.vPortDefineHeapRegions
                0x000000002300280a       0xe8 /home/shoaib/bl_iot_sdk/customer_app/sdk_app_helloworld/build_out/freertos_riscv_ram/libfreertos_riscv_ram.a(heap_5.o)
                0x000000002300280a                vPortDefineHeapRegions
 .text.vListInitialise
                0x00000000230028f2       0x14 /home/shoaib/bl_iot_sdk/customer_app/sdk_app_helloworld/build_out/freertos_riscv_ram/libfreertos_riscv_ram.a(list.o)
                0x00000000230028f2                vListInitialise
 .text.vListInitialiseItem
                0x0000000023002906        0x6 /home/shoaib/bl_iot_sdk/customer_app/sdk_app_helloworld/build_out/freertos_riscv_ram/libfreertos_riscv_ram.a(list.o)
                0x0000000023002906                vListInitialiseItem
 .text.vListInsertEnd
                0x000000002300290c       0x16 /home/shoaib/bl_iot_sdk/customer_app/sdk_app_helloworld/build_out/freertos_riscv_ram/libfreertos_riscv_ram.a(list.o)
                0x000000002300290c                vListInsertEnd
 .text.vListInsert
                0x0000000023002922       0x30 /home/shoaib/bl_iot_sdk/customer_app/sdk_app_helloworld/build_out/freertos_riscv_ram/libfreertos_riscv_ram.a(list.o)
                0x0000000023002922                vListInsert
 .text.uxListRemove
                0x0000000023002952       0x32 /home/shoaib/bl_iot_sdk/customer_app/sdk_app_helloworld/build_out/freertos_riscv_ram/libfreertos_riscv_ram.a(list.o)
                0x0000000023002952                uxListRemove
 .text.prvCopyDataToQueue
                0x0000000023002984       0xa4 /home/shoaib/bl_iot_sdk/customer_app/sdk_app_helloworld/build_out/freertos_riscv_ram/libfreertos_riscv_ram.a(queue.o)
 .text.prvCopyDataFromQueue
                0x0000000023002a28       0x1e /home/shoaib/bl_iot_sdk/customer_app/sdk_app_helloworld/build_out/freertos_riscv_ram/libfreertos_riscv_ram.a(queue.o)
 .text.prvUnlockQueue
                0x0000000023002a46       0xb6 /home/shoaib/bl_iot_sdk/customer_app/sdk_app_helloworld/build_out/freertos_riscv_ram/libfreertos_riscv_ram.a(queue.o)
 .text.xQueueGenericReset
                0x0000000023002afc       0x8e /home/shoaib/bl_iot_sdk/customer_app/sdk_app_helloworld/build_out/freertos_riscv_ram/libfreertos_riscv_ram.a(queue.o)
                0x0000000023002afc                xQueueGenericReset
 .text.xQueueGenericCreateStatic
                0x0000000023002b8a       0x7e /home/shoaib/bl_iot_sdk/customer_app/sdk_app_helloworld/build_out/freertos_riscv_ram/libfreertos_riscv_ram.a(queue.o)
                0x0000000023002b8a                xQueueGenericCreateStatic
 .text.xQueueGenericSend
                0x0000000023002c08      0x14a /home/shoaib/bl_iot_sdk/customer_app/sdk_app_helloworld/build_out/freertos_riscv_ram/libfreertos_riscv_ram.a(queue.o)
                0x0000000023002c08                xQueueGenericSend
 .text.xQueueGenericSendFromISR
                0x0000000023002d52       0xb4 /home/shoaib/bl_iot_sdk/customer_app/sdk_app_helloworld/build_out/freertos_riscv_ram/libfreertos_riscv_ram.a(queue.o)
                0x0000000023002d52                xQueueGenericSendFromISR
 .text.xQueueReceive
                0x0000000023002e06      0x146 /home/shoaib/bl_iot_sdk/customer_app/sdk_app_helloworld/build_out/freertos_riscv_ram/libfreertos_riscv_ram.a(queue.o)
                0x0000000023002e06                xQueueReceive
 .text.vQueueAddToRegistry
                0x0000000023002f4c       0x28 /home/shoaib/bl_iot_sdk/customer_app/sdk_app_helloworld/build_out/freertos_riscv_ram/libfreertos_riscv_ram.a(queue.o)
                0x0000000023002f4c                vQueueAddToRegistry
 .text.vQueueWaitForMessageRestricted
                0x0000000023002f74       0x6c /home/shoaib/bl_iot_sdk/customer_app/sdk_app_helloworld/build_out/freertos_riscv_ram/libfreertos_riscv_ram.a(queue.o)
                0x0000000023002f74                vQueueWaitForMessageRestricted
 .text.bl_uart_init
                0x0000000023002fe0       0xd6 /home/shoaib/bl_iot_sdk/customer_app/sdk_app_helloworld/build_out/hal_drv/libhal_drv.a(bl_uart.o)
                0x0000000023002fe0                bl_uart_init
 .text.bl_uart_data_send
                0x00000000230030b6       0x34 /home/shoaib/bl_iot_sdk/customer_app/sdk_app_helloworld/build_out/hal_drv/libhal_drv.a(bl_uart.o)
                0x00000000230030b6                bl_uart_data_send
 .text.interrupt_entry
                0x00000000230030ea       0x4e /home/shoaib/bl_iot_sdk/customer_app/sdk_app_helloworld/build_out/hal_drv/libhal_drv.a(bl_irq.o)
                0x00000000230030ea                interrupt_entry
 .text.exception_entry
                0x0000000023003138      0x13c /home/shoaib/bl_iot_sdk/customer_app/sdk_app_helloworld/build_out/hal_drv/libhal_drv.a(bl_irq.o)
                0x0000000023003138                exception_entry
 .text.bl_gpio_enable_output
                0x0000000023003274       0x44 /home/shoaib/bl_iot_sdk/customer_app/sdk_app_helloworld/build_out/hal_drv/libhal_drv.a(bl_gpio.o)
                0x0000000023003274                bl_gpio_enable_output
 .text.bl_gpio_output_set
                0x00000000230032b8       0x12 /home/shoaib/bl_iot_sdk/customer_app/sdk_app_helloworld/build_out/hal_drv/libhal_drv.a(bl_gpio.o)
                0x00000000230032b8                bl_gpio_output_set
 .text.vAssertCalled
                0x00000000230032ca       0x18 /home/shoaib/bl_iot_sdk/customer_app/sdk_app_helloworld/build_out/sdk_app_helloworld/libsdk_app_helloworld.a(freertos.o)
                0x00000000230032ca                vAssertCalled
 .text.vApplicationGetIdleTaskMemory
                0x00000000230032e2       0x1c /home/shoaib/bl_iot_sdk/customer_app/sdk_app_helloworld/build_out/sdk_app_helloworld/libsdk_app_helloworld.a(freertos.o)
                0x00000000230032e2                vApplicationGetIdleTaskMemory
 .text.vApplicationGetTimerTaskMemory
                0x00000000230032fe       0x1c /home/shoaib/bl_iot_sdk/customer_app/sdk_app_helloworld/build_out/sdk_app_helloworld/libsdk_app_helloworld.a(freertos.o)
                0x00000000230032fe                vApplicationGetTimerTaskMemory
 .text.vApplicationIdleHook
                0x000000002300331a        0x6 /home/shoaib/bl_iot_sdk/customer_app/sdk_app_helloworld/build_out/sdk_app_helloworld/libsdk_app_helloworld.a(freertos.o)
                0x000000002300331a                vApplicationIdleHook
 .text.vApplicationStackOverflowHook
                0x0000000023003320       0x22 /home/shoaib/bl_iot_sdk/customer_app/sdk_app_helloworld/build_out/sdk_app_helloworld/libsdk_app_helloworld.a(freertos.o)
                0x0000000023003320                vApplicationStackOverflowHook
 .text.UART_Init
                0x0000000023003342       0xf4 /home/shoaib/bl_iot_sdk/customer_app/sdk_app_helloworld/build_out/bl602_std/libbl602_std.a(bl602_uart.o)
                0x0000000023003342                UART_Init
 .text.UART_FifoConfig
                0x0000000023003436       0x6a /home/shoaib/bl_iot_sdk/customer_app/sdk_app_helloworld/build_out/bl602_std/libbl602_std.a(bl602_uart.o)
                0x0000000023003436                UART_FifoConfig
 .text.UART_Enable
                0x00000000230034a0       0x34 /home/shoaib/bl_iot_sdk/customer_app/sdk_app_helloworld/build_out/bl602_std/libbl602_std.a(bl602_uart.o)
                0x00000000230034a0                UART_Enable
 .text.UART_Disable
                0x00000000230034d4       0x30 /home/shoaib/bl_iot_sdk/customer_app/sdk_app_helloworld/build_out/bl602_std/libbl602_std.a(bl602_uart.o)
                0x00000000230034d4                UART_Disable
 .text.UART_TxFreeRun
                0x0000000023003504       0x24 /home/shoaib/bl_iot_sdk/customer_app/sdk_app_helloworld/build_out/bl602_std/libbl602_std.a(bl602_uart.o)
                0x0000000023003504                UART_TxFreeRun
 .text.UART_IntMask
                0x0000000023003528       0x3e /home/shoaib/bl_iot_sdk/customer_app/sdk_app_helloworld/build_out/bl602_std/libbl602_std.a(bl602_uart.o)
                0x0000000023003528                UART_IntMask
 .text.UART_GetTxFifoCount
                0x0000000023003566       0x18 /home/shoaib/bl_iot_sdk/customer_app/sdk_app_helloworld/build_out/bl602_std/libbl602_std.a(bl602_uart.o)
                0x0000000023003566                UART_GetTxFifoCount
 .text.GLB_Set_UART_CLK
                0x000000002300357e       0x3e /home/shoaib/bl_iot_sdk/customer_app/sdk_app_helloworld/build_out/bl602_std/libbl602_std.a(bl602_glb.o)
                0x000000002300357e                GLB_Set_UART_CLK
 .text.GLB_UART_Fun_Sel
                0x00000000230035bc       0x24 /home/shoaib/bl_iot_sdk/customer_app/sdk_app_helloworld/build_out/bl602_std/libbl602_std.a(bl602_glb.o)
                0x00000000230035bc                GLB_UART_Fun_Sel
 .text.GLB_GPIO_Write
                0x00000000230035e0       0x2a /home/shoaib/bl_iot_sdk/customer_app/sdk_app_helloworld/build_out/bl602_std/libbl602_std.a(bl602_glb.o)
                0x00000000230035e0                GLB_GPIO_Write
 .text.HBN_Set_UART_CLK_Sel
                0x000000002300360a       0x12 /home/shoaib/bl_iot_sdk/customer_app/sdk_app_helloworld/build_out/bl602_std/libbl602_std.a(bl602_hbn.o)
                0x000000002300360a                HBN_Set_UART_CLK_Sel
 .text.HBN_Get_RTC_Timer_Val
                0x000000002300361c       0x28 /home/shoaib/bl_iot_sdk/customer_app/sdk_app_helloworld/build_out/bl602_std/libbl602_std.a(bl602_hbn.o)
                0x000000002300361c                HBN_Get_RTC_Timer_Val
 .text.bl_sys_time_sync_state
                0x0000000023003644       0x56 /home/shoaib/bl_iot_sdk/customer_app/sdk_app_helloworld/build_out/bltime/libbltime.a(bl_sys_time.o)
                0x0000000023003644                bl_sys_time_sync_state
 .text.misaligned_load_trap
                0x000000002300369a      0x152 /home/shoaib/bl_iot_sdk/customer_app/sdk_app_helloworld/build_out/freertos_riscv_ram/libfreertos_riscv_ram.a(misaligned_ldst.o)
                0x000000002300369a                misaligned_load_trap
 .text.misaligned_store_trap
                0x00000000230037ec      0x14c /home/shoaib/bl_iot_sdk/customer_app/sdk_app_helloworld/build_out/freertos_riscv_ram/libfreertos_riscv_ram.a(misaligned_ldst.o)
                0x00000000230037ec                misaligned_store_trap
 .text          0x0000000023003938      0x200 /home/shoaib/bl_iot_sdk/customer_app/sdk_app_helloworld/build_out/freertos_riscv_ram/libfreertos_riscv_ram.a(fp_asm.o)
                0x0000000023003938                get_f32_reg
                0x0000000023003a38                put_f32_reg
 .text.backtrace_riscv
                0x0000000023003b38        0x4 /home/shoaib/bl_iot_sdk/customer_app/sdk_app_helloworld/build_out/freertos_riscv_ram/libfreertos_riscv_ram.a(panic_c.o)
                0x0000000023003b38                backtrace_riscv
                0x0000000023003b38                backtrace_now
 .text.bl_rtc_get_counter
                0x0000000023003b3c       0x16 /home/shoaib/bl_iot_sdk/customer_app/sdk_app_helloworld/build_out/hal_drv/libhal_drv.a(bl_rtc.o)
                0x0000000023003b3c                bl_rtc_get_counter
 .text.bl_rtc_get_timestamp_ms
                0x0000000023003b52       0x4e /home/shoaib/bl_iot_sdk/customer_app/sdk_app_helloworld/build_out/hal_drv/libhal_drv.a(bl_rtc.o)
                0x0000000023003b52                bl_rtc_get_timestamp_ms
 *fill*         0x0000000023003ba0        0x0 
 .text          0x0000000023003ba0       0xf4 /home/shoaib/bl_iot_sdk/toolchain/riscv/Linux/bin/../lib/gcc/riscv64-unknown-elf/8.3.0/../../../../riscv64-unknown-elf/lib/rv32imf/ilp32f/libm.a(lib_a-s_modf.o)
                0x0000000023003ba0                modf
 .text          0x0000000023003c94       0x4c /home/shoaib/bl_iot_sdk/toolchain/riscv/Linux/bin/../lib/gcc/riscv64-unknown-elf/8.3.0/rv32imf/ilp32f/libgcc.a(_clzsi2.o)
                0x0000000023003c94                __clzsi2
 .text          0x0000000023003ce0      0x434 /home/shoaib/bl_iot_sdk/toolchain/riscv/Linux/bin/../lib/gcc/riscv64-unknown-elf/8.3.0/rv32imf/ilp32f/libgcc.a(_udivdi3.o)
                0x0000000023003ce0                __udivdi3
 .text          0x0000000023004114      0x410 /home/shoaib/bl_iot_sdk/toolchain/riscv/Linux/bin/../lib/gcc/riscv64-unknown-elf/8.3.0/rv32imf/ilp32f/libgcc.a(_umoddi3.o)
                0x0000000023004114                __umoddi3
 .text          0x0000000023004524      0xb50 /home/shoaib/bl_iot_sdk/toolchain/riscv/Linux/bin/../lib/gcc/riscv64-unknown-elf/8.3.0/rv32imf/ilp32f/libgcc.a(adddf3.o)
                0x0000000023004524                __adddf3
 .text          0x0000000023005074      0x8ac /home/shoaib/bl_iot_sdk/toolchain/riscv/Linux/bin/../lib/gcc/riscv64-unknown-elf/8.3.0/rv32imf/ilp32f/libgcc.a(divdf3.o)
                0x0000000023005074                __divdf3
 .text          0x0000000023005920       0xc8 /home/shoaib/bl_iot_sdk/toolchain/riscv/Linux/bin/../lib/gcc/riscv64-unknown-elf/8.3.0/rv32imf/ilp32f/libgcc.a(eqdf2.o)
                0x0000000023005920                __eqdf2
                0x0000000023005920                __nedf2
 .text          0x00000000230059e8       0xec /home/shoaib/bl_iot_sdk/toolchain/riscv/Linux/bin/../lib/gcc/riscv64-unknown-elf/8.3.0/rv32imf/ilp32f/libgcc.a(gedf2.o)
                0x00000000230059e8                __gtdf2
                0x00000000230059e8                __gedf2
 .text          0x0000000023005ad4       0xec /home/shoaib/bl_iot_sdk/toolchain/riscv/Linux/bin/../lib/gcc/riscv64-unknown-elf/8.3.0/rv32imf/ilp32f/libgcc.a(ledf2.o)
                0x0000000023005ad4                __ltdf2
                0x0000000023005ad4                __ledf2
 .text          0x0000000023005bc0      0x79c /home/shoaib/bl_iot_sdk/toolchain/riscv/Linux/bin/../lib/gcc/riscv64-unknown-elf/8.3.0/rv32imf/ilp32f/libgcc.a(muldf3.o)
                0x0000000023005bc0                __muldf3
 .text          0x000000002300635c      0xb38 /home/shoaib/bl_iot_sdk/toolchain/riscv/Linux/bin/../lib/gcc/riscv64-unknown-elf/8.3.0/rv32imf/ilp32f/libgcc.a(subdf3.o)
                0x000000002300635c                __subdf3
 .text          0x0000000023006e94       0xfc /home/shoaib/bl_iot_sdk/toolchain/riscv/Linux/bin/../lib/gcc/riscv64-unknown-elf/8.3.0/rv32imf/ilp32f/libgcc.a(fixdfsi.o)
                0x0000000023006e94                __fixdfsi
 .text          0x0000000023006f90      0x11c /home/shoaib/bl_iot_sdk/toolchain/riscv/Linux/bin/../lib/gcc/riscv64-unknown-elf/8.3.0/../../../../riscv64-unknown-elf/lib/rv32imf/ilp32f/libc.a(lib_a-memcpy.o)
                0x0000000023006f90                memcpy
 .text          0x00000000230070ac       0xdc /home/shoaib/bl_iot_sdk/toolchain/riscv/Linux/bin/../lib/gcc/riscv64-unknown-elf/8.3.0/../../../../riscv64-unknown-elf/lib/rv32imf/ilp32f/libc.a(lib_a-memset.o)
                0x00000000230070ac                memset
 .text          0x0000000023007188       0x6c /home/shoaib/bl_iot_sdk/toolchain/riscv/Linux/bin/../lib/gcc/riscv64-unknown-elf/8.3.0/../../../../riscv64-unknown-elf/lib/rv32imf/ilp32f/libc.a(lib_a-rand.o)
                0x0000000023007188                srand
                0x000000002300719c                rand
 .text          0x00000000230071f4       0x8c /home/shoaib/bl_iot_sdk/toolchain/riscv/Linux/bin/../lib/gcc/riscv64-unknown-elf/8.3.0/../../../../riscv64-unknown-elf/lib/rv32imf/ilp32f/libc.a(lib_a-strlen.o)
                0x00000000230071f4                strlen
 .text          0x0000000023007280       0x44 /home/shoaib/bl_iot_sdk/toolchain/riscv/Linux/bin/../lib/gcc/riscv64-unknown-elf/8.3.0/../../../../riscv64-unknown-elf/lib/rv32imf/ilp32f/libc.a(lib_a-strnlen.o)
                0x0000000023007280                strnlen
 *(.gnu.linkonce.t.*)

.rodata         0x00000000230072c8      0x7ec
 *(.rdata)
 *(.rodata .rodata.*)
 .rodata.bfl_main.str1.4
                0x00000000230072c8       0x18 /home/shoaib/bl_iot_sdk/customer_app/sdk_app_helloworld/build_out/sdk_app_helloworld/libsdk_app_helloworld.a(main.o)
 .rodata.task_led.str1.4
                0x00000000230072e0       0x8a /home/shoaib/bl_iot_sdk/customer_app/sdk_app_helloworld/build_out/sdk_app_helloworld/libsdk_app_helloworld.a(led.o)
 *fill*         0x000000002300736a        0x2 
 .rodata.vsnprintf
                0x000000002300736c      0x1f4 /home/shoaib/bl_iot_sdk/customer_app/sdk_app_helloworld/build_out/bl602/libbl602.a(debug.o)
 .rodata.cvt.cst8
                0x0000000023007560       0x18 /home/shoaib/bl_iot_sdk/customer_app/sdk_app_helloworld/build_out/bl602/libbl602.a(debug.o)
 .rodata.lcdigits.2256
                0x0000000023007578       0x11 /home/shoaib/bl_iot_sdk/customer_app/sdk_app_helloworld/build_out/bl602/libbl602.a(debug.o)
 *fill*         0x0000000023007589        0x3 
 .rodata.ucdigits.2257
                0x000000002300758c       0x11 /home/shoaib/bl_iot_sdk/customer_app/sdk_app_helloworld/build_out/bl602/libbl602.a(debug.o)
 *fill*         0x000000002300759d        0x3 
 .rodata.vsnprintf.str1.4
                0x00000000230075a0        0x7 /home/shoaib/bl_iot_sdk/customer_app/sdk_app_helloworld/build_out/bl602/libbl602.a(debug.o)
 *fill*         0x00000000230075a7        0x1 
 .rodata.vTaskStartScheduler.str1.4
                0x00000000230075a8        0x5 /home/shoaib/bl_iot_sdk/customer_app/sdk_app_helloworld/build_out/freertos_riscv_ram/libfreertos_riscv_ram.a(tasks.o)
 *fill*         0x00000000230075ad        0x3 
 .rodata.prvTimerTask
                0x00000000230075b0       0x28 /home/shoaib/bl_iot_sdk/customer_app/sdk_app_helloworld/build_out/freertos_riscv_ram/libfreertos_riscv_ram.a(timers.o)
 .rodata.prvCheckForValidListAndQueue.str1.4
                0x00000000230075d8        0x5 /home/shoaib/bl_iot_sdk/customer_app/sdk_app_helloworld/build_out/freertos_riscv_ram/libfreertos_riscv_ram.a(timers.o)
 *fill*         0x00000000230075dd        0x3 
 .rodata.xTimerCreateTimerTask.str1.4
                0x00000000230075e0        0x8 /home/shoaib/bl_iot_sdk/customer_app/sdk_app_helloworld/build_out/freertos_riscv_ram/libfreertos_riscv_ram.a(timers.o)
 .rodata        0x00000000230075e8       0x20 /home/shoaib/bl_iot_sdk/customer_app/sdk_app_helloworld/build_out/hal_drv/libhal_drv.a(bl_uart.o)
 .rodata.exception_entry
                0x0000000023007608       0x40 /home/shoaib/bl_iot_sdk/customer_app/sdk_app_helloworld/build_out/hal_drv/libhal_drv.a(bl_irq.o)
 .rodata.exception_entry.str1.4
                0x0000000023007648      0x26c /home/shoaib/bl_iot_sdk/customer_app/sdk_app_helloworld/build_out/hal_drv/libhal_drv.a(bl_irq.o)
 .rodata.interrupt_entry.str1.4
                0x00000000230078b4       0x40 /home/shoaib/bl_iot_sdk/customer_app/sdk_app_helloworld/build_out/hal_drv/libhal_drv.a(bl_irq.o)
 .rodata.vApplicationStackOverflowHook.str1.4
                0x00000000230078f4       0x2c /home/shoaib/bl_iot_sdk/customer_app/sdk_app_helloworld/build_out/sdk_app_helloworld/libsdk_app_helloworld.a(freertos.o)
 .rodata        0x0000000023007920       0x3c /home/shoaib/bl_iot_sdk/toolchain/riscv/Linux/bin/../lib/gcc/riscv64-unknown-elf/8.3.0/rv32imf/ilp32f/libgcc.a(divdf3.o)
 .rodata        0x000000002300795c       0x3c /home/shoaib/bl_iot_sdk/toolchain/riscv/Linux/bin/../lib/gcc/riscv64-unknown-elf/8.3.0/rv32imf/ilp32f/libgcc.a(muldf3.o)
 .rodata        0x0000000023007998      0x100 /home/shoaib/bl_iot_sdk/toolchain/riscv/Linux/bin/../lib/gcc/riscv64-unknown-elf/8.3.0/rv32imf/ilp32f/libgcc.a(_clz.o)
                0x0000000023007998                __clz_tab
 *(.sdata2.*)
 .sdata2.pullMachineTimerCompareRegister
                0x0000000023007a98        0x4 /home/shoaib/bl_iot_sdk/customer_app/sdk_app_helloworld/build_out/freertos_riscv_ram/libfreertos_riscv_ram.a(port.o)
                0x0000000023007a98                pullMachineTimerCompareRegister
 .sdata2.uxTimerIncrementsForOneTick
                0x0000000023007a9c        0x4 /home/shoaib/bl_iot_sdk/customer_app/sdk_app_helloworld/build_out/freertos_riscv_ram/libfreertos_riscv_ram.a(port.o)
                0x0000000023007a9c                uxTimerIncrementsForOneTick
 .sdata2.xISRStackTop
                0x0000000023007aa0        0x4 /home/shoaib/bl_iot_sdk/customer_app/sdk_app_helloworld/build_out/freertos_riscv_ram/libfreertos_riscv_ram.a(port.o)
                0x0000000023007aa0                xISRStackTop
 .sdata2.uartAddr
                0x0000000023007aa4        0x8 /home/shoaib/bl_iot_sdk/customer_app/sdk_app_helloworld/build_out/hal_drv/libhal_drv.a(bl_uart.o)
 .sdata2.uartAddr
                0x0000000023007aac        0x8 /home/shoaib/bl_iot_sdk/customer_app/sdk_app_helloworld/build_out/bl602_std/libbl602_std.a(bl602_uart.o)
                0x0000000023007ab4                . = ALIGN (0x4)
                0x0000000023007ab4                _bl_static_cli_cmds_start = .
 *(.static_cli_cmds)
 *(.static_cli_cmds)
                0x0000000023007ab4                _bl_static_cli_cmds_end = .
                0x0000000023007ab4                . = ALIGN (0x4)
                0x0000000023007ab4                _bl_static_blogcomponent_code_start = .
 SORT_BY_NAME(*)(.static_blogcomponent_code*)
 *(.static_blogcomponent_code*)
                0x0000000023007ab4                _bl_static_blogcomponent_code_end = .
                0x0000000023007ab4                . = ALIGN (0x4)
                0x0000000023007ab4                _bl_static_blogfile_code_start = .
 SORT_BY_NAME(*)(.static_blogfile_code*)
 *(.static_blogfile_code*)
                0x0000000023007ab4                _bl_static_blogfile_code_end = .
                0x0000000023007ab4                . = ALIGN (0x4)
                0x0000000023007ab4                _bl_static_blogpri_code_start = .
 SORT_BY_NAME(*)(.static_blogpri_code*)
 *(.static_blogpri_code*)
                0x0000000023007ab4                _bl_static_blogpri_code_end = .
 *(.gnu.linkonce.r.*)

.rela.dyn       0x0000000023007ab4        0x0
 .rela.init     0x0000000023007ab4        0x0 /home/shoaib/bl_iot_sdk/customer_app/sdk_app_helloworld/build_out/bl602/libbl602.a(start.o)
 .rela.text.hal_boot2_get_flash_addr
                0x0000000023007ab4        0x0 /home/shoaib/bl_iot_sdk/customer_app/sdk_app_helloworld/build_out/bl602/libbl602.a(start.o)
 .rela.data.xHeapRegions
                0x0000000023007ab4        0x0 /home/shoaib/bl_iot_sdk/customer_app/sdk_app_helloworld/build_out/bl602/libbl602.a(start.o)
 .rela.text.xPortStartScheduler
                0x0000000023007ab4        0x0 /home/shoaib/bl_iot_sdk/customer_app/sdk_app_helloworld/build_out/bl602/libbl602.a(start.o)
 .rela.sdata2.xISRStackTop
                0x0000000023007ab4        0x0 /home/shoaib/bl_iot_sdk/customer_app/sdk_app_helloworld/build_out/bl602/libbl602.a(start.o)
 .rela.text.vQueueAddToRegistry
                0x0000000023007ab4        0x0 /home/shoaib/bl_iot_sdk/customer_app/sdk_app_helloworld/build_out/bl602/libbl602.a(start.o)
 .rela.text.exception_entry
                0x0000000023007ab4        0x0 /home/shoaib/bl_iot_sdk/customer_app/sdk_app_helloworld/build_out/bl602/libbl602.a(start.o)

.preinit_array  0x0000000023007ab4        0x0
                0x0000000023007ab4                . = ALIGN (0x4)
                0x0000000023007ab4                __preinit_array_start = .
 *(.preinit_array)
                0x0000000023007ab4                __preinit_array_end = .

.init_array     0x0000000023007ab4        0x0
                0x0000000023007ab4                . = ALIGN (0x4)
                0x0000000023007ab4                __init_array_start = .
 *(SORT_BY_INIT_PRIORITY(.init_array.*))
 *(.init_array)
                0x0000000023007ab4                __init_array_end = .

.wifibss        0x0000000042030000        0x0
                0x0000000042030000                PROVIDE (__wifi_bss_start = ADDR (.wifibss))
                0x0000000042030000                PROVIDE (__wifi_bss_end = (ADDR (.wifibss) + SIZEOF (.wifibss)))
 *ipc_shared.o(COMMON)
 *sdu_shared.o(COMMON)
 *hal_desc.o(COMMON)
 *txl_buffer_shared.o(COMMON)
 *txl_frame_shared.o(COMMON)
 *scan_shared.o(COMMON)
 *scanu_shared.o(COMMON)
 *mfp_bip.o(COMMON)
 *me_mic.o(COMMON)
 *bl_sta_mgmt_others.o(COMMON)
 *bl_pmk_mgmt.o(COMMON)
 *bl_pmk_mgmt_internal.o(COMMON)
 *libwifi_drv.a:bl_utils.o(COMMON)
 *libwifi_drv.a:bl_utils.o(.bss*)
 *(.wifi_ram*)
                0x0000000042030000                . = ALIGN (0x10)
                0x0000000042030000                PROVIDE (_heap_wifi_start = .)
                0x000000000001a000                PROVIDE (_heap_wifi_size = ((ORIGIN (ram_wifi) + LENGTH (ram_wifi)) - _heap_wifi_start))

.data           0x000000004200c000      0x9b8 load address 0x0000000023007ab4
                0x0000000023007ab4                PROVIDE (_data_load = LOADADDR (.data))
                0x000000004200c000                PROVIDE (_data_run = ADDR (.data))
                0x000000004200c9b8                PROVIDE (_data_run_end = (ADDR (.data) + SIZEOF (.data)))
 *(.tcm_code)
 .tcm_code      0x000000004200c000      0x550 /home/shoaib/bl_iot_sdk/customer_app/sdk_app_helloworld/build_out/bl602_std/libbl602_std.a(bl602_romapi.o)
                0x000000004200c000                AON_Power_On_BG
                0x000000004200c00a                AON_Power_Off_BG
                0x000000004200c014                AON_Power_On_LDO11_SOC
                0x000000004200c01e                AON_Power_Off_LDO11_SOC
                0x000000004200c028                AON_Power_On_LDO15_RF
                0x000000004200c032                AON_Power_Off_LDO15_RF
                0x000000004200c03c                AON_Power_On_SFReg
                0x000000004200c046                AON_Power_Off_SFReg
                0x000000004200c050                AON_LowPower_Enter_PDS0
                0x000000004200c05a                AON_LowPower_Exit_PDS0
                0x000000004200c064                ASM_Delay_Us
                0x000000004200c06e                BL602_Delay_US
                0x000000004200c078                BL602_Delay_MS
                0x000000004200c082                BL602_MemCpy
                0x000000004200c08c                BL602_MemCpy4
                0x000000004200c096                BL602_MemCpy_Fast
                0x000000004200c0a0                BL602_MemSet
                0x000000004200c0aa                BL602_MemSet4
                0x000000004200c0b4                BL602_MemCmp
                0x000000004200c0be                EF_Ctrl_Sw_AHB_Clk_0
                0x000000004200c0c8                EF_Ctrl_Program_Efuse_0
                0x000000004200c0d2                EF_Ctrl_Load_Efuse_R0
                0x000000004200c0dc                EF_Ctrl_Busy
                0x000000004200c0e6                EF_Ctrl_AutoLoad_Done
                0x000000004200c0f0                EF_Ctrl_Clear
                0x000000004200c0fa                GLB_SW_System_Reset
                0x000000004200c104                GLB_SW_CPU_Reset
                0x000000004200c10e                GLB_SW_POR_Reset
                0x000000004200c118                GLB_Select_Internal_Flash
                0x000000004200c122                GLB_Select_External_Flash
                0x000000004200c12c                GLB_Deswap_Flash_Pin
                0x000000004200c136                GLB_Swap_Flash_Pin
                0x000000004200c140                GLB_GPIO_Init
                0x000000004200c14a                GLB_GPIO_OUTPUT_Enable
                0x000000004200c154                GLB_GPIO_OUTPUT_Disable
                0x000000004200c15e                GLB_GPIO_Set_HZ
                0x000000004200c168                GLB_GPIO_Get_Fun
                0x000000004200c172                HBN_Mode_Enter
                0x000000004200c17c                HBN_Power_Down_Flash
                0x000000004200c186                HBN_Enable
                0x000000004200c190                HBN_Reset
                0x000000004200c19a                HBN_Set_Ldo11_Aon_Vout
                0x000000004200c1a4                HBN_Set_Ldo11_Rt_Vout
                0x000000004200c1ae                HBN_Set_Ldo11_Soc_Vout
                0x000000004200c1b8                HBN_Hw_Pu_Pd_Cfg
                0x000000004200c1c2                HBN_Pin_WakeUp_Mask
                0x000000004200c1cc                HBN_GPIO7_Dbg_Pull_Cfg
                0x000000004200c1d6                HBN_Set_Embedded_Flash_Pullup
                0x000000004200c1e0                L1C_Set_Wrap
                0x000000004200c1ea                L1C_Set_Way_Disable
                0x000000004200c1f4                L1C_IROM_2T_Access_Set
                0x000000004200c1fe                PDS_Reset
                0x000000004200c208                PDS_Force_Config
                0x000000004200c212                PDS_RAM_Config
                0x000000004200c21c                PDS_Default_Level_Config
                0x000000004200c226                SEC_Eng_Turn_On_Sec_Ring
                0x000000004200c230                SEC_Eng_Turn_Off_Sec_Ring
                0x000000004200c23a                SFlash_Init
                0x000000004200c244                SFlash_SetSPIMode
                0x000000004200c24e                SFlash_Read_Reg
                0x000000004200c258                SFlash_Write_Reg
                0x000000004200c262                SFlash_Busy
                0x000000004200c26c                SFlash_Write_Enable
                0x000000004200c276                SFlash_Qspi_Enable
                0x000000004200c280                SFlash_Volatile_Reg_Write_Enable
                0x000000004200c28a                SFlash_Chip_Erase
                0x000000004200c294                SFlash_Sector_Erase
                0x000000004200c29e                SFlash_Blk32_Erase
                0x000000004200c2a8                SFlash_Blk64_Erase
                0x000000004200c2b2                SFlash_Erase
                0x000000004200c2bc                SFlash_Program
                0x000000004200c2c6                SFlash_GetUniqueId
                0x000000004200c2d0                SFlash_GetJedecId
                0x000000004200c2da                SFlash_GetDeviceId
                0x000000004200c2e4                SFlash_Powerdown
                0x000000004200c2ee                SFlash_Releae_Powerdown
                0x000000004200c2f8                SFlash_SetBurstWrap
                0x000000004200c302                SFlash_DisableBurstWrap
                0x000000004200c30c                SFlash_Software_Reset
                0x000000004200c316                SFlash_Reset_Continue_Read
                0x000000004200c320                SFlash_Set_IDbus_Cfg
                0x000000004200c32a                SFlash_IDbus_Read_Enable
                0x000000004200c334                SFlash_Cache_Enable_Set
                0x000000004200c33e                SFlash_Cache_Flush
                0x000000004200c348                SFlash_Cache_Read_Enable
                0x000000004200c352                SFlash_Cache_Hit_Count_Get
                0x000000004200c35c                SFlash_Cache_Miss_Count_Get
                0x000000004200c366                SFlash_Cache_Read_Disable
                0x000000004200c370                SFlash_Read
                0x000000004200c37a                SFlash_Read_Reg_With_Cmd
                0x000000004200c384                SFlash_Write_Reg_With_Cmd
                0x000000004200c38e                SF_Cfg_Init_Ext_Flash_Gpio
                0x000000004200c398                SF_Cfg_Init_Internal_Flash_Gpio
                0x000000004200c3a2                SF_Cfg_Deinit_Ext_Flash_Gpio
                0x000000004200c3ac                SF_Cfg_Restore_GPIO17_Fun
                0x000000004200c3b6                SF_Cfg_Get_Flash_Cfg_Need_Lock
                0x000000004200c3c0                SF_Cfg_Init_Flash_Gpio
                0x000000004200c3ca                SF_Cfg_Flash_Identify
                0x000000004200c3d4                SF_Ctrl_Enable
                0x000000004200c3de                SF_Ctrl_Select_Pad
                0x000000004200c3e8                SF_Ctrl_Set_Owner
                0x000000004200c3f2                SF_Ctrl_Disable
                0x000000004200c3fc                SF_Ctrl_AES_Enable_BE
                0x000000004200c406                SF_Ctrl_AES_Enable_LE
                0x000000004200c410                SF_Ctrl_AES_Set_Region
                0x000000004200c41a                SF_Ctrl_AES_Set_Key
                0x000000004200c424                SF_Ctrl_AES_Set_Key_BE
                0x000000004200c42e                SF_Ctrl_AES_Set_IV
                0x000000004200c438                SF_Ctrl_AES_Set_IV_BE
                0x000000004200c442                SF_Ctrl_AES_Enable
                0x000000004200c44c                SF_Ctrl_AES_Disable
                0x000000004200c456                SF_Ctrl_Set_Flash_Image_Offset
                0x000000004200c460                SF_Ctrl_Get_Flash_Image_Offset
                0x000000004200c46a                SF_Ctrl_Select_Clock
                0x000000004200c474                SF_Ctrl_SendCmd
                0x000000004200c47e                SF_Ctrl_Icache_Set
                0x000000004200c488                SF_Ctrl_Icache2_Set
                0x000000004200c492                SF_Ctrl_GetBusyState
                0x000000004200c49c                SF_Ctrl_Is_AES_Enable
                0x000000004200c4a6                SF_Ctrl_Get_Clock_Delay
                0x000000004200c4b0                SF_Ctrl_Set_Clock_Delay
                0x000000004200c4ba                XIP_SFlash_State_Save
                0x000000004200c4c4                XIP_SFlash_State_Restore
                0x000000004200c4ce                XIP_SFlash_Erase_Need_Lock
                0x000000004200c4d8                XIP_SFlash_Write_Need_Lock
                0x000000004200c4e2                XIP_SFlash_Read_Need_Lock
                0x000000004200c4ec                XIP_SFlash_GetJedecId_Need_Lock
                0x000000004200c4f6                XIP_SFlash_GetDeviceId_Need_Lock
                0x000000004200c500                XIP_SFlash_GetUniqueId_Need_Lock
                0x000000004200c50a                XIP_SFlash_Read_Via_Cache_Need_Lock
                0x000000004200c514                XIP_SFlash_Read_With_Lock
                0x000000004200c51e                XIP_SFlash_Write_With_Lock
                0x000000004200c528                XIP_SFlash_Erase_With_Lock
                0x000000004200c532                XIP_SFlash_Opt_Enter
                0x000000004200c53c                XIP_SFlash_Opt_Exit
                0x000000004200c546                BFLB_Soft_CRC32
 *(.tcm_const)
 *(.sclock_rlt_code)
 *(.sclock_rlt_const)
 *(.data .data.*)
 .data.xHeapRegions
                0x000000004200c550       0x20 /home/shoaib/bl_iot_sdk/customer_app/sdk_app_helloworld/build_out/sdk_app_helloworld/libsdk_app_helloworld.a(main.o)
 .data          0x000000004200c570      0x428 /home/shoaib/bl_iot_sdk/toolchain/riscv/Linux/bin/../lib/gcc/riscv64-unknown-elf/8.3.0/../../../../riscv64-unknown-elf/lib/rv32imf/ilp32f/libc.a(lib_a-impure.o)
 *(.gnu.linkonce.d.*)
                0x000000004200c998                . = ALIGN (0x8)
                0x000000004200d188                PROVIDE (__global_pointer$ = (. + 0x7f0))
 *libfreertos_riscv.a:*(.sdata.*)
 *libfreertos_riscv.a:*(.sbss.*)
 *libfreertos_riscv.a:*(.bss.*)
 *libfreertos_riscv.a:*(COMMON)
 *(.sdata .sdata.*)
 .sdata.pTrapNetCounter
                0x000000004200c998        0x4 /home/shoaib/bl_iot_sdk/customer_app/sdk_app_helloworld/build_out/freertos_riscv_ram/libfreertos_riscv_ram.a(port.o)
                0x000000004200c998                pTrapNetCounter
 .sdata.pullNextTime
                0x000000004200c99c        0x4 /home/shoaib/bl_iot_sdk/customer_app/sdk_app_helloworld/build_out/freertos_riscv_ram/libfreertos_riscv_ram.a(port.o)
                0x000000004200c99c                pullNextTime
 .sdata.sys_log_all_enable
                0x000000004200c9a0        0x1 /home/shoaib/bl_iot_sdk/customer_app/sdk_app_helloworld/build_out/hal_drv/libhal_drv.a(bl_sys.o)
                0x000000004200c9a0                sys_log_all_enable
 *fill*         0x000000004200c9a1        0x3 
 .sdata.uxTopUsedPriority
                0x000000004200c9a4        0x4 /home/shoaib/bl_iot_sdk/customer_app/sdk_app_helloworld/build_out/sdk_app_helloworld/libsdk_app_helloworld.a(freertos.o)
                0x000000004200c9a4                uxTopUsedPriority
 .sdata         0x000000004200c9a8        0x4 /home/shoaib/bl_iot_sdk/toolchain/riscv/Linux/bin/../lib/gcc/riscv64-unknown-elf/8.3.0/../../../../riscv64-unknown-elf/lib/rv32imf/ilp32f/libc.a(lib_a-impure.o)
                0x000000004200c9a8                _impure_ptr
 *(.gnu.linkonce.s.*)
                0x000000004200c9b0                . = ALIGN (0x8)
 *fill*         0x000000004200c9ac        0x4 
 *(.srodata.cst16)
 *(.srodata.cst8)
 *(.srodata.cst4)
 *(.srodata.cst2)
 *(.srodata .srodata.*)
 .srodata       0x000000004200c9b0        0x4 /home/shoaib/bl_iot_sdk/customer_app/sdk_app_helloworld/build_out/hal_drv/libhal_drv.a(bl_uart.o)
                0x000000004200c9b8                . = ALIGN (0x8)
 *fill*         0x000000004200c9b4        0x4 
 *(._k_queue.static.*)
 *(._k_sem.static.*)
 *(._k_mutex.static.*)
                0x000000004200c9b8                _net_buf_pool_list = .
 *(SORT_BY_NAME(._net_buf_pool.static.*))
                0x000000004200c9b8                _bt_gatt_service_static_list_start = .
 *(SORT_BY_NAME(._bt_gatt_service_static.static.*))
                0x000000004200c9b8                _bt_gatt_service_static_list_end = .
                0x000000004200c9b8                _bt_l2cap_fixed_chan_list_start = .
 *(SORT_BY_NAME(._bt_l2cap_fixed_chan.static.*))
                0x000000004200c9b8                _bt_l2cap_fixed_chan_list_end = .

.boot2          0x000000004200c9b8      0x258 load address 0x000000002300846c
                0x000000004200c9b8                PROVIDE (__boot2_pt_addr_start = .)
 *(.bss.boot2_partition_table)
 .bss.boot2_partition_table
                0x000000004200c9b8      0x258 /home/shoaib/bl_iot_sdk/customer_app/sdk_app_helloworld/build_out/hal_drv/libhal_drv.a(hal_boot2.o)
                0x000000004200cc10                PROVIDE (__boot2_pt_addr_end = .)
                0x000000004200cc10                PROVIDE (__boot2_flashCfg_start = .)
 *(.bss.boot2_flashCfg)
                0x000000004200cc10                PROVIDE (__boot2_flashCfg_end = .)

.bss            0x000000004200cc10     0x19bc load address 0x000000002300846c
                0x000000004200cc10                PROVIDE (__bss_start = ADDR (.bss))
                0x000000004200e5cc                PROVIDE (__bss_end = (ADDR (.bss) + SIZEOF (.bss)))
 *(.sbss*)
 .sbss.pxCurrentTCB
                0x000000004200cc10        0x4 /home/shoaib/bl_iot_sdk/customer_app/sdk_app_helloworld/build_out/freertos_riscv_ram/libfreertos_riscv_ram.a(tasks.o)
                0x000000004200cc10                pxCurrentTCB
 .sbss.pxDelayedTaskList
                0x000000004200cc14        0x4 /home/shoaib/bl_iot_sdk/customer_app/sdk_app_helloworld/build_out/freertos_riscv_ram/libfreertos_riscv_ram.a(tasks.o)
 .sbss.pxOverflowDelayedTaskList
                0x000000004200cc18        0x4 /home/shoaib/bl_iot_sdk/customer_app/sdk_app_helloworld/build_out/freertos_riscv_ram/libfreertos_riscv_ram.a(tasks.o)
 .sbss.uxCurrentNumberOfTasks
                0x000000004200cc1c        0x4 /home/shoaib/bl_iot_sdk/customer_app/sdk_app_helloworld/build_out/freertos_riscv_ram/libfreertos_riscv_ram.a(tasks.o)
 .sbss.uxDeletedTasksWaitingCleanUp
                0x000000004200cc20        0x4 /home/shoaib/bl_iot_sdk/customer_app/sdk_app_helloworld/build_out/freertos_riscv_ram/libfreertos_riscv_ram.a(tasks.o)
 .sbss.uxPendedTicks
                0x000000004200cc24        0x4 /home/shoaib/bl_iot_sdk/customer_app/sdk_app_helloworld/build_out/freertos_riscv_ram/libfreertos_riscv_ram.a(tasks.o)
 .sbss.uxSchedulerSuspended
                0x000000004200cc28        0x4 /home/shoaib/bl_iot_sdk/customer_app/sdk_app_helloworld/build_out/freertos_riscv_ram/libfreertos_riscv_ram.a(tasks.o)
 .sbss.uxTaskNumber
                0x000000004200cc2c        0x4 /home/shoaib/bl_iot_sdk/customer_app/sdk_app_helloworld/build_out/freertos_riscv_ram/libfreertos_riscv_ram.a(tasks.o)
 .sbss.uxTopReadyPriority
                0x000000004200cc30        0x4 /home/shoaib/bl_iot_sdk/customer_app/sdk_app_helloworld/build_out/freertos_riscv_ram/libfreertos_riscv_ram.a(tasks.o)
 .sbss.xNextTaskUnblockTime
                0x000000004200cc34        0x4 /home/shoaib/bl_iot_sdk/customer_app/sdk_app_helloworld/build_out/freertos_riscv_ram/libfreertos_riscv_ram.a(tasks.o)
 .sbss.xNumOfOverflows
                0x000000004200cc38        0x4 /home/shoaib/bl_iot_sdk/customer_app/sdk_app_helloworld/build_out/freertos_riscv_ram/libfreertos_riscv_ram.a(tasks.o)
 .sbss.xSchedulerRunning
                0x000000004200cc3c        0x4 /home/shoaib/bl_iot_sdk/customer_app/sdk_app_helloworld/build_out/freertos_riscv_ram/libfreertos_riscv_ram.a(tasks.o)
 .sbss.xTickCount
                0x000000004200cc40        0x4 /home/shoaib/bl_iot_sdk/customer_app/sdk_app_helloworld/build_out/freertos_riscv_ram/libfreertos_riscv_ram.a(tasks.o)
 .sbss.xYieldPending
                0x000000004200cc44        0x4 /home/shoaib/bl_iot_sdk/customer_app/sdk_app_helloworld/build_out/freertos_riscv_ram/libfreertos_riscv_ram.a(tasks.o)
 .sbss.pxCurrentTimerList
                0x000000004200cc48        0x4 /home/shoaib/bl_iot_sdk/customer_app/sdk_app_helloworld/build_out/freertos_riscv_ram/libfreertos_riscv_ram.a(timers.o)
 .sbss.pxOverflowTimerList
                0x000000004200cc4c        0x4 /home/shoaib/bl_iot_sdk/customer_app/sdk_app_helloworld/build_out/freertos_riscv_ram/libfreertos_riscv_ram.a(timers.o)
 .sbss.xLastTime.2297
                0x000000004200cc50        0x4 /home/shoaib/bl_iot_sdk/customer_app/sdk_app_helloworld/build_out/freertos_riscv_ram/libfreertos_riscv_ram.a(timers.o)
 .sbss.xTimerQueue
                0x000000004200cc54        0x4 /home/shoaib/bl_iot_sdk/customer_app/sdk_app_helloworld/build_out/freertos_riscv_ram/libfreertos_riscv_ram.a(timers.o)
 .sbss.xTimerTaskHandle
                0x000000004200cc58        0x4 /home/shoaib/bl_iot_sdk/customer_app/sdk_app_helloworld/build_out/freertos_riscv_ram/libfreertos_riscv_ram.a(timers.o)
 .sbss.TrapNetCounter
                0x000000004200cc5c        0x4 /home/shoaib/bl_iot_sdk/customer_app/sdk_app_helloworld/build_out/freertos_riscv_ram/libfreertos_riscv_ram.a(port.o)
                0x000000004200cc5c                TrapNetCounter
 .sbss.ullNextTime
                0x000000004200cc60        0x8 /home/shoaib/bl_iot_sdk/customer_app/sdk_app_helloworld/build_out/freertos_riscv_ram/libfreertos_riscv_ram.a(port.o)
                0x000000004200cc60                ullNextTime
 .sbss.pxEnd    0x000000004200cc68        0x4 /home/shoaib/bl_iot_sdk/customer_app/sdk_app_helloworld/build_out/freertos_riscv_ram/libfreertos_riscv_ram.a(heap_5.o)
 .sbss.xBlockAllocatedBit
                0x000000004200cc6c        0x4 /home/shoaib/bl_iot_sdk/customer_app/sdk_app_helloworld/build_out/freertos_riscv_ram/libfreertos_riscv_ram.a(heap_5.o)
 .sbss.xFreeBytesRemaining
                0x000000004200cc70        0x4 /home/shoaib/bl_iot_sdk/customer_app/sdk_app_helloworld/build_out/freertos_riscv_ram/libfreertos_riscv_ram.a(heap_5.o)
 .sbss.xMinimumEverFreeBytesRemaining
                0x000000004200cc74        0x4 /home/shoaib/bl_iot_sdk/customer_app/sdk_app_helloworld/build_out/freertos_riscv_ram/libfreertos_riscv_ram.a(heap_5.o)
 .sbss.xStart   0x000000004200cc78        0x8 /home/shoaib/bl_iot_sdk/customer_app/sdk_app_helloworld/build_out/freertos_riscv_ram/libfreertos_riscv_ram.a(heap_5.o)
 .sbss.uart_clk_init.7788
                0x000000004200cc80        0x1 /home/shoaib/bl_iot_sdk/customer_app/sdk_app_helloworld/build_out/hal_drv/libhal_drv.a(bl_uart.o)
 *fill*         0x000000004200cc81        0x3 
 .sbss.init_tick_rtc
                0x000000004200cc84        0x4 /home/shoaib/bl_iot_sdk/customer_app/sdk_app_helloworld/build_out/bltime/libbltime.a(bl_sys_time.o)
 .sbss.init_tick_rtos
                0x000000004200cc88        0x4 /home/shoaib/bl_iot_sdk/customer_app/sdk_app_helloworld/build_out/bltime/libbltime.a(bl_sys_time.o)
 .sbss.sync_init
                0x000000004200cc8c        0x4 /home/shoaib/bl_iot_sdk/customer_app/sdk_app_helloworld/build_out/bltime/libbltime.a(bl_sys_time.o)
 *(.gnu.linkonce.sb.*)
 *(.bss .bss.*)
 .bss.led_stack.4806
                0x000000004200cc90      0x800 /home/shoaib/bl_iot_sdk/customer_app/sdk_app_helloworld/build_out/sdk_app_helloworld/libsdk_app_helloworld.a(main.o)
 .bss.led_task.4807
                0x000000004200d490       0x60 /home/shoaib/bl_iot_sdk/customer_app/sdk_app_helloworld/build_out/sdk_app_helloworld/libsdk_app_helloworld.a(main.o)
 .bss.string    0x000000004200d4f0      0x200 /home/shoaib/bl_iot_sdk/customer_app/sdk_app_helloworld/build_out/bl602/libbl602.a(debug.o)
 .bss.pxReadyTasksLists
                0x000000004200d6f0      0x280 /home/shoaib/bl_iot_sdk/customer_app/sdk_app_helloworld/build_out/freertos_riscv_ram/libfreertos_riscv_ram.a(tasks.o)
 .bss.xDelayedTaskList1
                0x000000004200d970       0x14 /home/shoaib/bl_iot_sdk/customer_app/sdk_app_helloworld/build_out/freertos_riscv_ram/libfreertos_riscv_ram.a(tasks.o)
 .bss.xDelayedTaskList2
                0x000000004200d984       0x14 /home/shoaib/bl_iot_sdk/customer_app/sdk_app_helloworld/build_out/freertos_riscv_ram/libfreertos_riscv_ram.a(tasks.o)
 .bss.xPendingReadyList
                0x000000004200d998       0x14 /home/shoaib/bl_iot_sdk/customer_app/sdk_app_helloworld/build_out/freertos_riscv_ram/libfreertos_riscv_ram.a(tasks.o)
 .bss.xSuspendedTaskList
                0x000000004200d9ac       0x14 /home/shoaib/bl_iot_sdk/customer_app/sdk_app_helloworld/build_out/freertos_riscv_ram/libfreertos_riscv_ram.a(tasks.o)
 .bss.xTasksWaitingTermination
                0x000000004200d9c0       0x14 /home/shoaib/bl_iot_sdk/customer_app/sdk_app_helloworld/build_out/freertos_riscv_ram/libfreertos_riscv_ram.a(tasks.o)
 .bss.ucStaticTimerQueueStorage.2344
                0x000000004200d9d4       0x40 /home/shoaib/bl_iot_sdk/customer_app/sdk_app_helloworld/build_out/freertos_riscv_ram/libfreertos_riscv_ram.a(timers.o)
 .bss.xActiveTimerList1
                0x000000004200da14       0x14 /home/shoaib/bl_iot_sdk/customer_app/sdk_app_helloworld/build_out/freertos_riscv_ram/libfreertos_riscv_ram.a(timers.o)
 .bss.xActiveTimerList2
                0x000000004200da28       0x14 /home/shoaib/bl_iot_sdk/customer_app/sdk_app_helloworld/build_out/freertos_riscv_ram/libfreertos_riscv_ram.a(timers.o)
 .bss.xStaticTimerQueue.2343
                0x000000004200da3c       0x50 /home/shoaib/bl_iot_sdk/customer_app/sdk_app_helloworld/build_out/freertos_riscv_ram/libfreertos_riscv_ram.a(timers.o)
 .bss.handler_list
                0x000000004200da8c      0x280 /home/shoaib/bl_iot_sdk/customer_app/sdk_app_helloworld/build_out/hal_drv/libhal_drv.a(bl_irq.o)
 .bss.uxIdleTaskStack.2391
                0x000000004200dd0c      0x180 /home/shoaib/bl_iot_sdk/customer_app/sdk_app_helloworld/build_out/sdk_app_helloworld/libsdk_app_helloworld.a(freertos.o)
 .bss.uxTimerTaskStack.2398
                0x000000004200de8c      0x640 /home/shoaib/bl_iot_sdk/customer_app/sdk_app_helloworld/build_out/sdk_app_helloworld/libsdk_app_helloworld.a(freertos.o)
 .bss.xIdleTaskTCB.2390
                0x000000004200e4cc       0x60 /home/shoaib/bl_iot_sdk/customer_app/sdk_app_helloworld/build_out/sdk_app_helloworld/libsdk_app_helloworld.a(freertos.o)
 .bss.xTimerTaskTCB.2397
                0x000000004200e52c       0x60 /home/shoaib/bl_iot_sdk/customer_app/sdk_app_helloworld/build_out/sdk_app_helloworld/libsdk_app_helloworld.a(freertos.o)
 *(.gnu.linkonce.b.*)
 *(COMMON)
 COMMON         0x000000004200e58c       0x40 /home/shoaib/bl_iot_sdk/customer_app/sdk_app_helloworld/build_out/freertos_riscv_ram/libfreertos_riscv_ram.a(queue.o)
                0x000000004200e58c                xQueueRegistry
                0x000000004200e5cc                PROVIDE (_heap_start = .)
                0x0000000000021234                PROVIDE (_heap_size = (ADDR (.stack) - _heap_start))

.stack          0x000000004202f800      0x800
                0x0000000042030000                . = (. + __stack_size)
 *fill*         0x000000004202f800      0x800 
                0x0000000042030000                PROVIDE (_sp_main = .)
                0x0000000042030000                __freertos_irq_stack_top = .
                [!provide]                        PROVIDE (_ld_bl_static_cli_cmds_start = _bl_static_cli_cmds_start)
                [!provide]                        PROVIDE (_ld_bl_static_cli_cmds_end = _bl_static_cli_cmds_end)
                [!provide]                        PROVIDE (_ld_bl_static_blogcomponent_code_start = _bl_static_blogcomponent_code_start)
                [!provide]                        PROVIDE (_ld_bl_static_blogcomponent_code_end = _bl_static_blogcomponent_code_end)
                [!provide]                        PROVIDE (_ld_bl_static_blogfile_code_start = _bl_static_blogfile_code_start)
                [!provide]                        PROVIDE (_ld_bl_static_blogfile_code_end = _bl_static_blogfile_code_end)
                [!provide]                        PROVIDE (_ld_bl_static_blogpri_code_start = _bl_static_blogpri_code_start)
                [!provide]                        PROVIDE (_ld_bl_static_blogpri_code_end = _bl_static_blogpri_code_end)
                [!provide]                        PROVIDE (_ld_ram_size0 = LENGTH (flash))
                [!provide]                        PROVIDE (_ld_ram_addr0 = ORIGIN (flash))
                [!provide]                        PROVIDE (_ld_ram_size1 = LENGTH (ram_tcm))
                [!provide]                        PROVIDE (_ld_ram_addr1 = ORIGIN (ram_tcm))
                [!provide]                        PROVIDE (_ld_ram_size2 = LENGTH (ram_wifi))
                [!provide]                        PROVIDE (_ld_ram_addr2 = ORIGIN (ram_wifi))
                0x0000000042049c00                PROVIDE (__boot2_pt_addr_src = BOOT2_PT_ADDR)
                0x0000000042049c18                PROVIDE (__boot2_flashCfg_src = BOOT2_FLASHCFG_ADDR)
                0x0000000000000000                PROVIDE (__LD_CONFIG_EM_SEL = __EM_SIZE)
OUTPUT(/home/shoaib/bl_iot_sdk/customer_app/sdk_app_helloworld/build_out/sdk_app_helloworld.elf elf32-littleriscv)

.riscv.attributes
                0x0000000000000000       0x2b
 .riscv.attributes
                0x0000000000000000       0x29 /home/shoaib/bl_iot_sdk/customer_app/sdk_app_helloworld/build_out/bl602/libbl602.a(start.o)
 .riscv.attributes
                0x0000000000000029       0x2b /home/shoaib/bl_iot_sdk/customer_app/sdk_app_helloworld/build_out/hal_drv/libhal_drv.a(hal_boot2.o)
 .riscv.attributes
                0x0000000000000054       0x2b /home/shoaib/bl_iot_sdk/customer_app/sdk_app_helloworld/build_out/sdk_app_helloworld/libsdk_app_helloworld.a(main.o)
 .riscv.attributes
                0x000000000000007f       0x2b /home/shoaib/bl_iot_sdk/customer_app/sdk_app_helloworld/build_out/sdk_app_helloworld/libsdk_app_helloworld.a(led.o)
 .riscv.attributes
                0x00000000000000aa       0x2b /home/shoaib/bl_iot_sdk/customer_app/sdk_app_helloworld/build_out/bl602/libbl602.a(debug.o)
 .riscv.attributes
                0x00000000000000d5       0x2b /home/shoaib/bl_iot_sdk/customer_app/sdk_app_helloworld/build_out/freertos_riscv_ram/libfreertos_riscv_ram.a(tasks.o)
 .riscv.attributes
                0x0000000000000100       0x2b /home/shoaib/bl_iot_sdk/customer_app/sdk_app_helloworld/build_out/freertos_riscv_ram/libfreertos_riscv_ram.a(timers.o)
 .riscv.attributes
                0x000000000000012b       0x2b /home/shoaib/bl_iot_sdk/customer_app/sdk_app_helloworld/build_out/freertos_riscv_ram/libfreertos_riscv_ram.a(port.o)
 .riscv.attributes
                0x0000000000000156       0x29 /home/shoaib/bl_iot_sdk/customer_app/sdk_app_helloworld/build_out/freertos_riscv_ram/libfreertos_riscv_ram.a(portASM.o)
 .riscv.attributes
                0x000000000000017f       0x2b /home/shoaib/bl_iot_sdk/customer_app/sdk_app_helloworld/build_out/freertos_riscv_ram/libfreertos_riscv_ram.a(heap_5.o)
 .riscv.attributes
                0x00000000000001aa       0x2b /home/shoaib/bl_iot_sdk/customer_app/sdk_app_helloworld/build_out/freertos_riscv_ram/libfreertos_riscv_ram.a(list.o)
 .riscv.attributes
                0x00000000000001d5       0x2b /home/shoaib/bl_iot_sdk/customer_app/sdk_app_helloworld/build_out/freertos_riscv_ram/libfreertos_riscv_ram.a(queue.o)
 .riscv.attributes
                0x0000000000000200       0x2b /home/shoaib/bl_iot_sdk/customer_app/sdk_app_helloworld/build_out/hal_drv/libhal_drv.a(bl_uart.o)
 .riscv.attributes
                0x000000000000022b       0x2b /home/shoaib/bl_iot_sdk/customer_app/sdk_app_helloworld/build_out/hal_drv/libhal_drv.a(bl_sys.o)
 .riscv.attributes
                0x0000000000000256       0x2b /home/shoaib/bl_iot_sdk/customer_app/sdk_app_helloworld/build_out/hal_drv/libhal_drv.a(bl_irq.o)
 .riscv.attributes
                0x0000000000000281       0x2b /home/shoaib/bl_iot_sdk/customer_app/sdk_app_helloworld/build_out/hal_drv/libhal_drv.a(bl_gpio.o)
 .riscv.attributes
                0x00000000000002ac       0x2b /home/shoaib/bl_iot_sdk/customer_app/sdk_app_helloworld/build_out/sdk_app_helloworld/libsdk_app_helloworld.a(freertos.o)
 .riscv.attributes
                0x00000000000002d7       0x2b /home/shoaib/bl_iot_sdk/customer_app/sdk_app_helloworld/build_out/bl602_std/libbl602_std.a(bl602_uart.o)
 .riscv.attributes
                0x0000000000000302       0x2b /home/shoaib/bl_iot_sdk/customer_app/sdk_app_helloworld/build_out/bl602_std/libbl602_std.a(bl602_glb.o)
 .riscv.attributes
                0x000000000000032d       0x2b /home/shoaib/bl_iot_sdk/customer_app/sdk_app_helloworld/build_out/bl602_std/libbl602_std.a(bl602_hbn.o)
 .riscv.attributes
                0x0000000000000358       0x2b /home/shoaib/bl_iot_sdk/customer_app/sdk_app_helloworld/build_out/bl602_std/libbl602_std.a(bl602_romapi.o)
 .riscv.attributes
                0x0000000000000383       0x2b /home/shoaib/bl_iot_sdk/customer_app/sdk_app_helloworld/build_out/bltime/libbltime.a(bl_sys_time.o)
 .riscv.attributes
                0x00000000000003ae       0x2b /home/shoaib/bl_iot_sdk/customer_app/sdk_app_helloworld/build_out/freertos_riscv_ram/libfreertos_riscv_ram.a(misaligned_ldst.o)
 .riscv.attributes
                0x00000000000003d9       0x29 /home/shoaib/bl_iot_sdk/customer_app/sdk_app_helloworld/build_out/freertos_riscv_ram/libfreertos_riscv_ram.a(fp_asm.o)
 .riscv.attributes
                0x0000000000000402       0x2b /home/shoaib/bl_iot_sdk/customer_app/sdk_app_helloworld/build_out/freertos_riscv_ram/libfreertos_riscv_ram.a(panic_c.o)
 .riscv.attributes
                0x000000000000042d       0x2b /home/shoaib/bl_iot_sdk/customer_app/sdk_app_helloworld/build_out/hal_drv/libhal_drv.a(bl_rtc.o)
 .riscv.attributes
                0x0000000000000458       0x26 /home/shoaib/bl_iot_sdk/toolchain/riscv/Linux/bin/../lib/gcc/riscv64-unknown-elf/8.3.0/../../../../riscv64-unknown-elf/lib/rv32imf/ilp32f/libm.a(lib_a-s_modf.o)
 .riscv.attributes
                0x000000000000047e       0x26 /home/shoaib/bl_iot_sdk/toolchain/riscv/Linux/bin/../lib/gcc/riscv64-unknown-elf/8.3.0/rv32imf/ilp32f/libgcc.a(_clzsi2.o)
 .riscv.attributes
                0x00000000000004a4       0x26 /home/shoaib/bl_iot_sdk/toolchain/riscv/Linux/bin/../lib/gcc/riscv64-unknown-elf/8.3.0/rv32imf/ilp32f/libgcc.a(_udivdi3.o)
 .riscv.attributes
                0x00000000000004ca       0x26 /home/shoaib/bl_iot_sdk/toolchain/riscv/Linux/bin/../lib/gcc/riscv64-unknown-elf/8.3.0/rv32imf/ilp32f/libgcc.a(_umoddi3.o)
 .riscv.attributes
                0x00000000000004f0       0x26 /home/shoaib/bl_iot_sdk/toolchain/riscv/Linux/bin/../lib/gcc/riscv64-unknown-elf/8.3.0/rv32imf/ilp32f/libgcc.a(adddf3.o)
 .riscv.attributes
                0x0000000000000516       0x26 /home/shoaib/bl_iot_sdk/toolchain/riscv/Linux/bin/../lib/gcc/riscv64-unknown-elf/8.3.0/rv32imf/ilp32f/libgcc.a(divdf3.o)
 .riscv.attributes
                0x000000000000053c       0x26 /home/shoaib/bl_iot_sdk/toolchain/riscv/Linux/bin/../lib/gcc/riscv64-unknown-elf/8.3.0/rv32imf/ilp32f/libgcc.a(eqdf2.o)
 .riscv.attributes
                0x0000000000000562       0x26 /home/shoaib/bl_iot_sdk/toolchain/riscv/Linux/bin/../lib/gcc/riscv64-unknown-elf/8.3.0/rv32imf/ilp32f/libgcc.a(gedf2.o)
 .riscv.attributes
                0x0000000000000588       0x26 /home/shoaib/bl_iot_sdk/toolchain/riscv/Linux/bin/../lib/gcc/riscv64-unknown-elf/8.3.0/rv32imf/ilp32f/libgcc.a(ledf2.o)
 .riscv.attributes
                0x00000000000005ae       0x26 /home/shoaib/bl_iot_sdk/toolchain/riscv/Linux/bin/../lib/gcc/riscv64-unknown-elf/8.3.0/rv32imf/ilp32f/libgcc.a(muldf3.o)
 .riscv.attributes
                0x00000000000005d4       0x26 /home/shoaib/bl_iot_sdk/toolchain/riscv/Linux/bin/../lib/gcc/riscv64-unknown-elf/8.3.0/rv32imf/ilp32f/libgcc.a(subdf3.o)
 .riscv.attributes
                0x00000000000005fa       0x26 /home/shoaib/bl_iot_sdk/toolchain/riscv/Linux/bin/../lib/gcc/riscv64-unknown-elf/8.3.0/rv32imf/ilp32f/libgcc.a(fixdfsi.o)
 .riscv.attributes
                0x0000000000000620       0x26 /home/shoaib/bl_iot_sdk/toolchain/riscv/Linux/bin/../lib/gcc/riscv64-unknown-elf/8.3.0/rv32imf/ilp32f/libgcc.a(_clz.o)
 .riscv.attributes
                0x0000000000000646       0x26 /home/shoaib/bl_iot_sdk/toolchain/riscv/Linux/bin/../lib/gcc/riscv64-unknown-elf/8.3.0/../../../../riscv64-unknown-elf/lib/rv32imf/ilp32f/libc.a(lib_a-memcpy.o)
 .riscv.attributes
                0x000000000000066c       0x24 /home/shoaib/bl_iot_sdk/toolchain/riscv/Linux/bin/../lib/gcc/riscv64-unknown-elf/8.3.0/../../../../riscv64-unknown-elf/lib/rv32imf/ilp32f/libc.a(lib_a-memset.o)
 .riscv.attributes
                0x0000000000000690       0x26 /home/shoaib/bl_iot_sdk/toolchain/riscv/Linux/bin/../lib/gcc/riscv64-unknown-elf/8.3.0/../../../../riscv64-unknown-elf/lib/rv32imf/ilp32f/libc.a(lib_a-rand.o)
 .riscv.attributes
                0x00000000000006b6       0x26 /home/shoaib/bl_iot_sdk/toolchain/riscv/Linux/bin/../lib/gcc/riscv64-unknown-elf/8.3.0/../../../../riscv64-unknown-elf/lib/rv32imf/ilp32f/libc.a(lib_a-strlen.o)
 .riscv.attributes
                0x00000000000006dc       0x26 /home/shoaib/bl_iot_sdk/toolchain/riscv/Linux/bin/../lib/gcc/riscv64-unknown-elf/8.3.0/../../../../riscv64-unknown-elf/lib/rv32imf/ilp32f/libc.a(lib_a-strnlen.o)
 .riscv.attributes
                0x0000000000000702       0x26 /home/shoaib/bl_iot_sdk/toolchain/riscv/Linux/bin/../lib/gcc/riscv64-unknown-elf/8.3.0/../../../../riscv64-unknown-elf/lib/rv32imf/ilp32f/libc.a(lib_a-impure.o)

.comment        0x0000000000000000       0x28
 .comment       0x0000000000000000       0x28 /home/shoaib/bl_iot_sdk/customer_app/sdk_app_helloworld/build_out/hal_drv/libhal_drv.a(hal_boot2.o)
                                         0x29 (size before relaxing)
 .comment       0x0000000000000028       0x29 /home/shoaib/bl_iot_sdk/customer_app/sdk_app_helloworld/build_out/sdk_app_helloworld/libsdk_app_helloworld.a(main.o)
 .comment       0x0000000000000028       0x29 /home/shoaib/bl_iot_sdk/customer_app/sdk_app_helloworld/build_out/sdk_app_helloworld/libsdk_app_helloworld.a(led.o)
 .comment       0x0000000000000028       0x29 /home/shoaib/bl_iot_sdk/customer_app/sdk_app_helloworld/build_out/bl602/libbl602.a(debug.o)
 .comment       0x0000000000000028       0x29 /home/shoaib/bl_iot_sdk/customer_app/sdk_app_helloworld/build_out/freertos_riscv_ram/libfreertos_riscv_ram.a(tasks.o)
 .comment       0x0000000000000028       0x29 /home/shoaib/bl_iot_sdk/customer_app/sdk_app_helloworld/build_out/freertos_riscv_ram/libfreertos_riscv_ram.a(timers.o)
 .comment       0x0000000000000028       0x29 /home/shoaib/bl_iot_sdk/customer_app/sdk_app_helloworld/build_out/freertos_riscv_ram/libfreertos_riscv_ram.a(port.o)
 .comment       0x0000000000000028       0x29 /home/shoaib/bl_iot_sdk/customer_app/sdk_app_helloworld/build_out/freertos_riscv_ram/libfreertos_riscv_ram.a(heap_5.o)
 .comment       0x0000000000000028       0x29 /home/shoaib/bl_iot_sdk/customer_app/sdk_app_helloworld/build_out/freertos_riscv_ram/libfreertos_riscv_ram.a(list.o)
 .comment       0x0000000000000028       0x29 /home/shoaib/bl_iot_sdk/customer_app/sdk_app_helloworld/build_out/freertos_riscv_ram/libfreertos_riscv_ram.a(queue.o)
 .comment       0x0000000000000028       0x29 /home/shoaib/bl_iot_sdk/customer_app/sdk_app_helloworld/build_out/hal_drv/libhal_drv.a(bl_uart.o)
 .comment       0x0000000000000028       0x29 /home/shoaib/bl_iot_sdk/customer_app/sdk_app_helloworld/build_out/hal_drv/libhal_drv.a(bl_sys.o)
 .comment       0x0000000000000028       0x29 /home/shoaib/bl_iot_sdk/customer_app/sdk_app_helloworld/build_out/hal_drv/libhal_drv.a(bl_irq.o)
 .comment       0x0000000000000028       0x29 /home/shoaib/bl_iot_sdk/customer_app/sdk_app_helloworld/build_out/hal_drv/libhal_drv.a(bl_gpio.o)
 .comment       0x0000000000000028       0x29 /home/shoaib/bl_iot_sdk/customer_app/sdk_app_helloworld/build_out/sdk_app_helloworld/libsdk_app_helloworld.a(freertos.o)
 .comment       0x0000000000000028       0x29 /home/shoaib/bl_iot_sdk/customer_app/sdk_app_helloworld/build_out/bl602_std/libbl602_std.a(bl602_uart.o)
 .comment       0x0000000000000028       0x29 /home/shoaib/bl_iot_sdk/customer_app/sdk_app_helloworld/build_out/bl602_std/libbl602_std.a(bl602_glb.o)
 .comment       0x0000000000000028       0x29 /home/shoaib/bl_iot_sdk/customer_app/sdk_app_helloworld/build_out/bl602_std/libbl602_std.a(bl602_hbn.o)
 .comment       0x0000000000000028       0x29 /home/shoaib/bl_iot_sdk/customer_app/sdk_app_helloworld/build_out/bl602_std/libbl602_std.a(bl602_romapi.o)
 .comment       0x0000000000000028       0x29 /home/shoaib/bl_iot_sdk/customer_app/sdk_app_helloworld/build_out/bltime/libbltime.a(bl_sys_time.o)
 .comment       0x0000000000000028       0x29 /home/shoaib/bl_iot_sdk/customer_app/sdk_app_helloworld/build_out/freertos_riscv_ram/libfreertos_riscv_ram.a(misaligned_ldst.o)
 .comment       0x0000000000000028       0x29 /home/shoaib/bl_iot_sdk/customer_app/sdk_app_helloworld/build_out/freertos_riscv_ram/libfreertos_riscv_ram.a(panic_c.o)
 .comment       0x0000000000000028       0x29 /home/shoaib/bl_iot_sdk/customer_app/sdk_app_helloworld/build_out/hal_drv/libhal_drv.a(bl_rtc.o)
 .comment       0x0000000000000028       0x29 /home/shoaib/bl_iot_sdk/toolchain/riscv/Linux/bin/../lib/gcc/riscv64-unknown-elf/8.3.0/../../../../riscv64-unknown-elf/lib/rv32imf/ilp32f/libm.a(lib_a-s_modf.o)
 .comment       0x0000000000000028       0x29 /home/shoaib/bl_iot_sdk/toolchain/riscv/Linux/bin/../lib/gcc/riscv64-unknown-elf/8.3.0/rv32imf/ilp32f/libgcc.a(_clzsi2.o)
 .comment       0x0000000000000028       0x29 /home/shoaib/bl_iot_sdk/toolchain/riscv/Linux/bin/../lib/gcc/riscv64-unknown-elf/8.3.0/rv32imf/ilp32f/libgcc.a(_udivdi3.o)
 .comment       0x0000000000000028       0x29 /home/shoaib/bl_iot_sdk/toolchain/riscv/Linux/bin/../lib/gcc/riscv64-unknown-elf/8.3.0/rv32imf/ilp32f/libgcc.a(_umoddi3.o)
 .comment       0x0000000000000028       0x29 /home/shoaib/bl_iot_sdk/toolchain/riscv/Linux/bin/../lib/gcc/riscv64-unknown-elf/8.3.0/rv32imf/ilp32f/libgcc.a(adddf3.o)
 .comment       0x0000000000000028       0x29 /home/shoaib/bl_iot_sdk/toolchain/riscv/Linux/bin/../lib/gcc/riscv64-unknown-elf/8.3.0/rv32imf/ilp32f/libgcc.a(divdf3.o)
 .comment       0x0000000000000028       0x29 /home/shoaib/bl_iot_sdk/toolchain/riscv/Linux/bin/../lib/gcc/riscv64-unknown-elf/8.3.0/rv32imf/ilp32f/libgcc.a(eqdf2.o)
 .comment       0x0000000000000028       0x29 /home/shoaib/bl_iot_sdk/toolchain/riscv/Linux/bin/../lib/gcc/riscv64-unknown-elf/8.3.0/rv32imf/ilp32f/libgcc.a(gedf2.o)
 .comment       0x0000000000000028       0x29 /home/shoaib/bl_iot_sdk/toolchain/riscv/Linux/bin/../lib/gcc/riscv64-unknown-elf/8.3.0/rv32imf/ilp32f/libgcc.a(ledf2.o)
 .comment       0x0000000000000028       0x29 /home/shoaib/bl_iot_sdk/toolchain/riscv/Linux/bin/../lib/gcc/riscv64-unknown-elf/8.3.0/rv32imf/ilp32f/libgcc.a(muldf3.o)
 .comment       0x0000000000000028       0x29 /home/shoaib/bl_iot_sdk/toolchain/riscv/Linux/bin/../lib/gcc/riscv64-unknown-elf/8.3.0/rv32imf/ilp32f/libgcc.a(subdf3.o)
 .comment       0x0000000000000028       0x29 /home/shoaib/bl_iot_sdk/toolchain/riscv/Linux/bin/../lib/gcc/riscv64-unknown-elf/8.3.0/rv32imf/ilp32f/libgcc.a(fixdfsi.o)
 .comment       0x0000000000000028       0x29 /home/shoaib/bl_iot_sdk/toolchain/riscv/Linux/bin/../lib/gcc/riscv64-unknown-elf/8.3.0/rv32imf/ilp32f/libgcc.a(_clz.o)
 .comment       0x0000000000000028       0x29 /home/shoaib/bl_iot_sdk/toolchain/riscv/Linux/bin/../lib/gcc/riscv64-unknown-elf/8.3.0/../../../../riscv64-unknown-elf/lib/rv32imf/ilp32f/libc.a(lib_a-memcpy.o)
 .comment       0x0000000000000028       0x29 /home/shoaib/bl_iot_sdk/toolchain/riscv/Linux/bin/../lib/gcc/riscv64-unknown-elf/8.3.0/../../../../riscv64-unknown-elf/lib/rv32imf/ilp32f/libc.a(lib_a-rand.o)
 .comment       0x0000000000000028       0x29 /home/shoaib/bl_iot_sdk/toolchain/riscv/Linux/bin/../lib/gcc/riscv64-unknown-elf/8.3.0/../../../../riscv64-unknown-elf/lib/rv32imf/ilp32f/libc.a(lib_a-strlen.o)
 .comment       0x0000000000000028       0x29 /home/shoaib/bl_iot_sdk/toolchain/riscv/Linux/bin/../lib/gcc/riscv64-unknown-elf/8.3.0/../../../../riscv64-unknown-elf/lib/rv32imf/ilp32f/libc.a(lib_a-strnlen.o)
 .comment       0x0000000000000028       0x29 /home/shoaib/bl_iot_sdk/toolchain/riscv/Linux/bin/../lib/gcc/riscv64-unknown-elf/8.3.0/../../../../riscv64-unknown-elf/lib/rv32imf/ilp32f/libc.a(lib_a-impure.o)

.debug_line     0x0000000000000000    0x2470a
 .debug_line    0x0000000000000000      0x222 /home/shoaib/bl_iot_sdk/customer_app/sdk_app_helloworld/build_out/bl602/libbl602.a(start.o)
 .debug_line    0x0000000000000222      0xd8a /home/shoaib/bl_iot_sdk/customer_app/sdk_app_helloworld/build_out/hal_drv/libhal_drv.a(hal_boot2.o)
 .debug_line    0x0000000000000fac      0x6bc /home/shoaib/bl_iot_sdk/customer_app/sdk_app_helloworld/build_out/sdk_app_helloworld/libsdk_app_helloworld.a(main.o)
 .debug_line    0x0000000000001668      0x40c /home/shoaib/bl_iot_sdk/customer_app/sdk_app_helloworld/build_out/sdk_app_helloworld/libsdk_app_helloworld.a(led.o)
 .debug_line    0x0000000000001a74     0x29e2 /home/shoaib/bl_iot_sdk/customer_app/sdk_app_helloworld/build_out/bl602/libbl602.a(debug.o)
 .debug_line    0x0000000000004456     0x5eb7 /home/shoaib/bl_iot_sdk/customer_app/sdk_app_helloworld/build_out/freertos_riscv_ram/libfreertos_riscv_ram.a(tasks.o)
 .debug_line    0x000000000000a30d     0x16f3 /home/shoaib/bl_iot_sdk/customer_app/sdk_app_helloworld/build_out/freertos_riscv_ram/libfreertos_riscv_ram.a(timers.o)
 .debug_line    0x000000000000ba00      0x311 /home/shoaib/bl_iot_sdk/customer_app/sdk_app_helloworld/build_out/freertos_riscv_ram/libfreertos_riscv_ram.a(port.o)
 .debug_line    0x000000000000bd11      0x4d6 /home/shoaib/bl_iot_sdk/customer_app/sdk_app_helloworld/build_out/freertos_riscv_ram/libfreertos_riscv_ram.a(portASM.o)
 .debug_line    0x000000000000c1e7      0xc6f /home/shoaib/bl_iot_sdk/customer_app/sdk_app_helloworld/build_out/freertos_riscv_ram/libfreertos_riscv_ram.a(heap_5.o)
 .debug_line    0x000000000000ce56      0x602 /home/shoaib/bl_iot_sdk/customer_app/sdk_app_helloworld/build_out/freertos_riscv_ram/libfreertos_riscv_ram.a(list.o)
 .debug_line    0x000000000000d458     0x32d5 /home/shoaib/bl_iot_sdk/customer_app/sdk_app_helloworld/build_out/freertos_riscv_ram/libfreertos_riscv_ram.a(queue.o)
 .debug_line    0x000000000001072d      0xeea /home/shoaib/bl_iot_sdk/customer_app/sdk_app_helloworld/build_out/hal_drv/libhal_drv.a(bl_uart.o)
 .debug_line    0x0000000000011617      0x536 /home/shoaib/bl_iot_sdk/customer_app/sdk_app_helloworld/build_out/hal_drv/libhal_drv.a(bl_sys.o)
 .debug_line    0x0000000000011b4d      0x965 /home/shoaib/bl_iot_sdk/customer_app/sdk_app_helloworld/build_out/hal_drv/libhal_drv.a(bl_irq.o)
 .debug_line    0x00000000000124b2      0x79d /home/shoaib/bl_iot_sdk/customer_app/sdk_app_helloworld/build_out/hal_drv/libhal_drv.a(bl_gpio.o)
 .debug_line    0x0000000000012c4f      0x453 /home/shoaib/bl_iot_sdk/customer_app/sdk_app_helloworld/build_out/sdk_app_helloworld/libsdk_app_helloworld.a(freertos.o)
 .debug_line    0x00000000000130a2     0x191b /home/shoaib/bl_iot_sdk/customer_app/sdk_app_helloworld/build_out/bl602_std/libbl602_std.a(bl602_uart.o)
 .debug_line    0x00000000000149bd     0x3a72 /home/shoaib/bl_iot_sdk/customer_app/sdk_app_helloworld/build_out/bl602_std/libbl602_std.a(bl602_glb.o)
 .debug_line    0x000000000001842f     0x2241 /home/shoaib/bl_iot_sdk/customer_app/sdk_app_helloworld/build_out/bl602_std/libbl602_std.a(bl602_hbn.o)
 .debug_line    0x000000000001a670     0x1984 /home/shoaib/bl_iot_sdk/customer_app/sdk_app_helloworld/build_out/bl602_std/libbl602_std.a(bl602_romapi.o)
 .debug_line    0x000000000001bff4      0x66e /home/shoaib/bl_iot_sdk/customer_app/sdk_app_helloworld/build_out/bltime/libbltime.a(bl_sys_time.o)
 .debug_line    0x000000000001c662      0xa30 /home/shoaib/bl_iot_sdk/customer_app/sdk_app_helloworld/build_out/freertos_riscv_ram/libfreertos_riscv_ram.a(misaligned_ldst.o)
 .debug_line    0x000000000001d092      0x1fa /home/shoaib/bl_iot_sdk/customer_app/sdk_app_helloworld/build_out/freertos_riscv_ram/libfreertos_riscv_ram.a(fp_asm.o)
 .debug_line    0x000000000001d28c      0x1d6 /home/shoaib/bl_iot_sdk/customer_app/sdk_app_helloworld/build_out/freertos_riscv_ram/libfreertos_riscv_ram.a(panic_c.o)
 .debug_line    0x000000000001d462      0x36d /home/shoaib/bl_iot_sdk/customer_app/sdk_app_helloworld/build_out/hal_drv/libhal_drv.a(bl_rtc.o)
 .debug_line    0x000000000001d7cf      0x3ba /home/shoaib/bl_iot_sdk/toolchain/riscv/Linux/bin/../lib/gcc/riscv64-unknown-elf/8.3.0/rv32imf/ilp32f/libgcc.a(_clzsi2.o)
 .debug_line    0x000000000001db89      0x9fc /home/shoaib/bl_iot_sdk/toolchain/riscv/Linux/bin/../lib/gcc/riscv64-unknown-elf/8.3.0/rv32imf/ilp32f/libgcc.a(_udivdi3.o)
 .debug_line    0x000000000001e585      0xaac /home/shoaib/bl_iot_sdk/toolchain/riscv/Linux/bin/../lib/gcc/riscv64-unknown-elf/8.3.0/rv32imf/ilp32f/libgcc.a(_umoddi3.o)
 .debug_line    0x000000000001f031     0x141d /home/shoaib/bl_iot_sdk/toolchain/riscv/Linux/bin/../lib/gcc/riscv64-unknown-elf/8.3.0/rv32imf/ilp32f/libgcc.a(adddf3.o)
 .debug_line    0x000000000002044e     0x10b7 /home/shoaib/bl_iot_sdk/toolchain/riscv/Linux/bin/../lib/gcc/riscv64-unknown-elf/8.3.0/rv32imf/ilp32f/libgcc.a(divdf3.o)
 .debug_line    0x0000000000021505      0x2d6 /home/shoaib/bl_iot_sdk/toolchain/riscv/Linux/bin/../lib/gcc/riscv64-unknown-elf/8.3.0/rv32imf/ilp32f/libgcc.a(eqdf2.o)
 .debug_line    0x00000000000217db      0x30f /home/shoaib/bl_iot_sdk/toolchain/riscv/Linux/bin/../lib/gcc/riscv64-unknown-elf/8.3.0/rv32imf/ilp32f/libgcc.a(gedf2.o)
 .debug_line    0x0000000000021aea      0x30f /home/shoaib/bl_iot_sdk/toolchain/riscv/Linux/bin/../lib/gcc/riscv64-unknown-elf/8.3.0/rv32imf/ilp32f/libgcc.a(ledf2.o)
 .debug_line    0x0000000000021df9      0xe85 /home/shoaib/bl_iot_sdk/toolchain/riscv/Linux/bin/../lib/gcc/riscv64-unknown-elf/8.3.0/rv32imf/ilp32f/libgcc.a(muldf3.o)
 .debug_line    0x0000000000022c7e     0x1477 /home/shoaib/bl_iot_sdk/toolchain/riscv/Linux/bin/../lib/gcc/riscv64-unknown-elf/8.3.0/rv32imf/ilp32f/libgcc.a(subdf3.o)
 .debug_line    0x00000000000240f5      0x2dd /home/shoaib/bl_iot_sdk/toolchain/riscv/Linux/bin/../lib/gcc/riscv64-unknown-elf/8.3.0/rv32imf/ilp32f/libgcc.a(fixdfsi.o)
 .debug_line    0x00000000000243d2      0x338 /home/shoaib/bl_iot_sdk/toolchain/riscv/Linux/bin/../lib/gcc/riscv64-unknown-elf/8.3.0/rv32imf/ilp32f/libgcc.a(_clz.o)

.debug_info     0x0000000000000000    0x2721c
 .debug_info    0x0000000000000000       0x26 /home/shoaib/bl_iot_sdk/customer_app/sdk_app_helloworld/build_out/bl602/libbl602.a(start.o)
 .debug_info    0x0000000000000026     0x14ed /home/shoaib/bl_iot_sdk/customer_app/sdk_app_helloworld/build_out/hal_drv/libhal_drv.a(hal_boot2.o)
 .debug_info    0x0000000000001513      0xecc /home/shoaib/bl_iot_sdk/customer_app/sdk_app_helloworld/build_out/sdk_app_helloworld/libsdk_app_helloworld.a(main.o)
 .debug_info    0x00000000000023df      0xb04 /home/shoaib/bl_iot_sdk/customer_app/sdk_app_helloworld/build_out/sdk_app_helloworld/libsdk_app_helloworld.a(led.o)
 .debug_info    0x0000000000002ee3     0x183d /home/shoaib/bl_iot_sdk/customer_app/sdk_app_helloworld/build_out/bl602/libbl602.a(debug.o)
 .debug_info    0x0000000000004720     0x3c7d /home/shoaib/bl_iot_sdk/customer_app/sdk_app_helloworld/build_out/freertos_riscv_ram/libfreertos_riscv_ram.a(tasks.o)
 .debug_info    0x000000000000839d     0x21b2 /home/shoaib/bl_iot_sdk/customer_app/sdk_app_helloworld/build_out/freertos_riscv_ram/libfreertos_riscv_ram.a(timers.o)
 .debug_info    0x000000000000a54f      0x292 /home/shoaib/bl_iot_sdk/customer_app/sdk_app_helloworld/build_out/freertos_riscv_ram/libfreertos_riscv_ram.a(port.o)
 .debug_info    0x000000000000a7e1       0x26 /home/shoaib/bl_iot_sdk/customer_app/sdk_app_helloworld/build_out/freertos_riscv_ram/libfreertos_riscv_ram.a(portASM.o)
 .debug_info    0x000000000000a807      0xd91 /home/shoaib/bl_iot_sdk/customer_app/sdk_app_helloworld/build_out/freertos_riscv_ram/libfreertos_riscv_ram.a(heap_5.o)
 .debug_info    0x000000000000b598      0xb7f /home/shoaib/bl_iot_sdk/customer_app/sdk_app_helloworld/build_out/freertos_riscv_ram/libfreertos_riscv_ram.a(list.o)
 .debug_info    0x000000000000c117     0x2a58 /home/shoaib/bl_iot_sdk/customer_app/sdk_app_helloworld/build_out/freertos_riscv_ram/libfreertos_riscv_ram.a(queue.o)
 .debug_info    0x000000000000eb6f     0x198e /home/shoaib/bl_iot_sdk/customer_app/sdk_app_helloworld/build_out/hal_drv/libhal_drv.a(bl_uart.o)
 .debug_info    0x00000000000104fd      0xbce /home/shoaib/bl_iot_sdk/customer_app/sdk_app_helloworld/build_out/hal_drv/libhal_drv.a(bl_sys.o)
 .debug_info    0x00000000000110cb      0xef7 /home/shoaib/bl_iot_sdk/customer_app/sdk_app_helloworld/build_out/hal_drv/libhal_drv.a(bl_irq.o)
 .debug_info    0x0000000000011fc2     0x11f9 /home/shoaib/bl_iot_sdk/customer_app/sdk_app_helloworld/build_out/hal_drv/libhal_drv.a(bl_gpio.o)
 .debug_info    0x00000000000131bb      0xcbf /home/shoaib/bl_iot_sdk/customer_app/sdk_app_helloworld/build_out/sdk_app_helloworld/libsdk_app_helloworld.a(freertos.o)
 .debug_info    0x0000000000013e7a     0x1929 /home/shoaib/bl_iot_sdk/customer_app/sdk_app_helloworld/build_out/bl602_std/libbl602_std.a(bl602_uart.o)
 .debug_info    0x00000000000157a3     0x29ed /home/shoaib/bl_iot_sdk/customer_app/sdk_app_helloworld/build_out/bl602_std/libbl602_std.a(bl602_glb.o)
 .debug_info    0x0000000000018190     0x2302 /home/shoaib/bl_iot_sdk/customer_app/sdk_app_helloworld/build_out/bl602_std/libbl602_std.a(bl602_hbn.o)
 .debug_info    0x000000000001a492     0x452e /home/shoaib/bl_iot_sdk/customer_app/sdk_app_helloworld/build_out/bl602_std/libbl602_std.a(bl602_romapi.o)
 .debug_info    0x000000000001e9c0      0xc0b /home/shoaib/bl_iot_sdk/customer_app/sdk_app_helloworld/build_out/bltime/libbltime.a(bl_sys_time.o)
 .debug_info    0x000000000001f5cb      0x752 /home/shoaib/bl_iot_sdk/customer_app/sdk_app_helloworld/build_out/freertos_riscv_ram/libfreertos_riscv_ram.a(misaligned_ldst.o)
 .debug_info    0x000000000001fd1d       0x26 /home/shoaib/bl_iot_sdk/customer_app/sdk_app_helloworld/build_out/freertos_riscv_ram/libfreertos_riscv_ram.a(fp_asm.o)
 .debug_info    0x000000000001fd43      0x97c /home/shoaib/bl_iot_sdk/customer_app/sdk_app_helloworld/build_out/freertos_riscv_ram/libfreertos_riscv_ram.a(panic_c.o)
 .debug_info    0x00000000000206bf      0xa76 /home/shoaib/bl_iot_sdk/customer_app/sdk_app_helloworld/build_out/hal_drv/libhal_drv.a(bl_rtc.o)
 .debug_info    0x0000000000021135      0xbd7 /home/shoaib/bl_iot_sdk/toolchain/riscv/Linux/bin/../lib/gcc/riscv64-unknown-elf/8.3.0/rv32imf/ilp32f/libgcc.a(_clzsi2.o)
 .debug_info    0x0000000000021d0c     0x1245 /home/shoaib/bl_iot_sdk/toolchain/riscv/Linux/bin/../lib/gcc/riscv64-unknown-elf/8.3.0/rv32imf/ilp32f/libgcc.a(_udivdi3.o)
 .debug_info    0x0000000000022f51     0x12a3 /home/shoaib/bl_iot_sdk/toolchain/riscv/Linux/bin/../lib/gcc/riscv64-unknown-elf/8.3.0/rv32imf/ilp32f/libgcc.a(_umoddi3.o)
 .debug_info    0x00000000000241f4      0x5f2 /home/shoaib/bl_iot_sdk/toolchain/riscv/Linux/bin/../lib/gcc/riscv64-unknown-elf/8.3.0/rv32imf/ilp32f/libgcc.a(adddf3.o)
 .debug_info    0x00000000000247e6      0x773 /home/shoaib/bl_iot_sdk/toolchain/riscv/Linux/bin/../lib/gcc/riscv64-unknown-elf/8.3.0/rv32imf/ilp32f/libgcc.a(divdf3.o)
 .debug_info    0x0000000000024f59      0x29e /home/shoaib/bl_iot_sdk/toolchain/riscv/Linux/bin/../lib/gcc/riscv64-unknown-elf/8.3.0/rv32imf/ilp32f/libgcc.a(eqdf2.o)
 .debug_info    0x00000000000251f7      0x285 /home/shoaib/bl_iot_sdk/toolchain/riscv/Linux/bin/../lib/gcc/riscv64-unknown-elf/8.3.0/rv32imf/ilp32f/libgcc.a(gedf2.o)
 .debug_info    0x000000000002547c      0x285 /home/shoaib/bl_iot_sdk/toolchain/riscv/Linux/bin/../lib/gcc/riscv64-unknown-elf/8.3.0/rv32imf/ilp32f/libgcc.a(ledf2.o)
 .debug_info    0x0000000000025701      0x7ab /home/shoaib/bl_iot_sdk/toolchain/riscv/Linux/bin/../lib/gcc/riscv64-unknown-elf/8.3.0/rv32imf/ilp32f/libgcc.a(muldf3.o)
 .debug_info    0x0000000000025eac      0x5ec /home/shoaib/bl_iot_sdk/toolchain/riscv/Linux/bin/../lib/gcc/riscv64-unknown-elf/8.3.0/rv32imf/ilp32f/libgcc.a(subdf3.o)
 .debug_info    0x0000000000026498      0x21a /home/shoaib/bl_iot_sdk/toolchain/riscv/Linux/bin/../lib/gcc/riscv64-unknown-elf/8.3.0/rv32imf/ilp32f/libgcc.a(fixdfsi.o)
 .debug_info    0x00000000000266b2      0xb6a /home/shoaib/bl_iot_sdk/toolchain/riscv/Linux/bin/../lib/gcc/riscv64-unknown-elf/8.3.0/rv32imf/ilp32f/libgcc.a(_clz.o)

.debug_abbrev   0x0000000000000000     0x622e
 .debug_abbrev  0x0000000000000000       0x14 /home/shoaib/bl_iot_sdk/customer_app/sdk_app_helloworld/build_out/bl602/libbl602.a(start.o)
 .debug_abbrev  0x0000000000000014      0x3bb /home/shoaib/bl_iot_sdk/customer_app/sdk_app_helloworld/build_out/hal_drv/libhal_drv.a(hal_boot2.o)
 .debug_abbrev  0x00000000000003cf      0x2eb /home/shoaib/bl_iot_sdk/customer_app/sdk_app_helloworld/build_out/sdk_app_helloworld/libsdk_app_helloworld.a(main.o)
 .debug_abbrev  0x00000000000006ba      0x23d /home/shoaib/bl_iot_sdk/customer_app/sdk_app_helloworld/build_out/sdk_app_helloworld/libsdk_app_helloworld.a(led.o)
 .debug_abbrev  0x00000000000008f7      0x4e5 /home/shoaib/bl_iot_sdk/customer_app/sdk_app_helloworld/build_out/bl602/libbl602.a(debug.o)
 .debug_abbrev  0x0000000000000ddc      0x592 /home/shoaib/bl_iot_sdk/customer_app/sdk_app_helloworld/build_out/freertos_riscv_ram/libfreertos_riscv_ram.a(tasks.o)
 .debug_abbrev  0x000000000000136e      0x3f8 /home/shoaib/bl_iot_sdk/customer_app/sdk_app_helloworld/build_out/freertos_riscv_ram/libfreertos_riscv_ram.a(timers.o)
 .debug_abbrev  0x0000000000001766      0x154 /home/shoaib/bl_iot_sdk/customer_app/sdk_app_helloworld/build_out/freertos_riscv_ram/libfreertos_riscv_ram.a(port.o)
 .debug_abbrev  0x00000000000018ba       0x14 /home/shoaib/bl_iot_sdk/customer_app/sdk_app_helloworld/build_out/freertos_riscv_ram/libfreertos_riscv_ram.a(portASM.o)
 .debug_abbrev  0x00000000000018ce      0x34c /home/shoaib/bl_iot_sdk/customer_app/sdk_app_helloworld/build_out/freertos_riscv_ram/libfreertos_riscv_ram.a(heap_5.o)
 .debug_abbrev  0x0000000000001c1a      0x254 /home/shoaib/bl_iot_sdk/customer_app/sdk_app_helloworld/build_out/freertos_riscv_ram/libfreertos_riscv_ram.a(list.o)
 .debug_abbrev  0x0000000000001e6e      0x464 /home/shoaib/bl_iot_sdk/customer_app/sdk_app_helloworld/build_out/freertos_riscv_ram/libfreertos_riscv_ram.a(queue.o)
 .debug_abbrev  0x00000000000022d2      0x431 /home/shoaib/bl_iot_sdk/customer_app/sdk_app_helloworld/build_out/hal_drv/libhal_drv.a(bl_uart.o)
 .debug_abbrev  0x0000000000002703      0x31e /home/shoaib/bl_iot_sdk/customer_app/sdk_app_helloworld/build_out/hal_drv/libhal_drv.a(bl_sys.o)
 .debug_abbrev  0x0000000000002a21      0x40c /home/shoaib/bl_iot_sdk/customer_app/sdk_app_helloworld/build_out/hal_drv/libhal_drv.a(bl_irq.o)
 .debug_abbrev  0x0000000000002e2d      0x3bd /home/shoaib/bl_iot_sdk/customer_app/sdk_app_helloworld/build_out/hal_drv/libhal_drv.a(bl_gpio.o)
 .debug_abbrev  0x00000000000031ea      0x283 /home/shoaib/bl_iot_sdk/customer_app/sdk_app_helloworld/build_out/sdk_app_helloworld/libsdk_app_helloworld.a(freertos.o)
 .debug_abbrev  0x000000000000346d      0x2f4 /home/shoaib/bl_iot_sdk/customer_app/sdk_app_helloworld/build_out/bl602_std/libbl602_std.a(bl602_uart.o)
 .debug_abbrev  0x0000000000003761      0x3d2 /home/shoaib/bl_iot_sdk/customer_app/sdk_app_helloworld/build_out/bl602_std/libbl602_std.a(bl602_glb.o)
 .debug_abbrev  0x0000000000003b33      0x37e /home/shoaib/bl_iot_sdk/customer_app/sdk_app_helloworld/build_out/bl602_std/libbl602_std.a(bl602_hbn.o)
 .debug_abbrev  0x0000000000003eb1      0x396 /home/shoaib/bl_iot_sdk/customer_app/sdk_app_helloworld/build_out/bl602_std/libbl602_std.a(bl602_romapi.o)
 .debug_abbrev  0x0000000000004247      0x2eb /home/shoaib/bl_iot_sdk/customer_app/sdk_app_helloworld/build_out/bltime/libbltime.a(bl_sys_time.o)
 .debug_abbrev  0x0000000000004532      0x222 /home/shoaib/bl_iot_sdk/customer_app/sdk_app_helloworld/build_out/freertos_riscv_ram/libfreertos_riscv_ram.a(misaligned_ldst.o)
 .debug_abbrev  0x0000000000004754       0x14 /home/shoaib/bl_iot_sdk/customer_app/sdk_app_helloworld/build_out/freertos_riscv_ram/libfreertos_riscv_ram.a(fp_asm.o)
 .debug_abbrev  0x0000000000004768      0x1e7 /home/shoaib/bl_iot_sdk/customer_app/sdk_app_helloworld/build_out/freertos_riscv_ram/libfreertos_riscv_ram.a(panic_c.o)
 .debug_abbrev  0x000000000000494f      0x282 /home/shoaib/bl_iot_sdk/customer_app/sdk_app_helloworld/build_out/hal_drv/libhal_drv.a(bl_rtc.o)
 .debug_abbrev  0x0000000000004bd1      0x242 /home/shoaib/bl_iot_sdk/toolchain/riscv/Linux/bin/../lib/gcc/riscv64-unknown-elf/8.3.0/rv32imf/ilp32f/libgcc.a(_clzsi2.o)
 .debug_abbrev  0x0000000000004e13      0x2cc /home/shoaib/bl_iot_sdk/toolchain/riscv/Linux/bin/../lib/gcc/riscv64-unknown-elf/8.3.0/rv32imf/ilp32f/libgcc.a(_udivdi3.o)
 .debug_abbrev  0x00000000000050df      0x2e8 /home/shoaib/bl_iot_sdk/toolchain/riscv/Linux/bin/../lib/gcc/riscv64-unknown-elf/8.3.0/rv32imf/ilp32f/libgcc.a(_umoddi3.o)
 .debug_abbrev  0x00000000000053c7      0x19a /home/shoaib/bl_iot_sdk/toolchain/riscv/Linux/bin/../lib/gcc/riscv64-unknown-elf/8.3.0/rv32imf/ilp32f/libgcc.a(adddf3.o)
 .debug_abbrev  0x0000000000005561      0x17f /home/shoaib/bl_iot_sdk/toolchain/riscv/Linux/bin/../lib/gcc/riscv64-unknown-elf/8.3.0/rv32imf/ilp32f/libgcc.a(divdf3.o)
 .debug_abbrev  0x00000000000056e0      0x1a4 /home/shoaib/bl_iot_sdk/toolchain/riscv/Linux/bin/../lib/gcc/riscv64-unknown-elf/8.3.0/rv32imf/ilp32f/libgcc.a(eqdf2.o)
 .debug_abbrev  0x0000000000005884      0x199 /home/shoaib/bl_iot_sdk/toolchain/riscv/Linux/bin/../lib/gcc/riscv64-unknown-elf/8.3.0/rv32imf/ilp32f/libgcc.a(gedf2.o)
 .debug_abbrev  0x0000000000005a1d      0x199 /home/shoaib/bl_iot_sdk/toolchain/riscv/Linux/bin/../lib/gcc/riscv64-unknown-elf/8.3.0/rv32imf/ilp32f/libgcc.a(ledf2.o)
 .debug_abbrev  0x0000000000005bb6      0x186 /home/shoaib/bl_iot_sdk/toolchain/riscv/Linux/bin/../lib/gcc/riscv64-unknown-elf/8.3.0/rv32imf/ilp32f/libgcc.a(muldf3.o)
 .debug_abbrev  0x0000000000005d3c      0x189 /home/shoaib/bl_iot_sdk/toolchain/riscv/Linux/bin/../lib/gcc/riscv64-unknown-elf/8.3.0/rv32imf/ilp32f/libgcc.a(subdf3.o)
 .debug_abbrev  0x0000000000005ec5      0x181 /home/shoaib/bl_iot_sdk/toolchain/riscv/Linux/bin/../lib/gcc/riscv64-unknown-elf/8.3.0/rv32imf/ilp32f/libgcc.a(fixdfsi.o)
 .debug_abbrev  0x0000000000006046      0x1e8 /home/shoaib/bl_iot_sdk/toolchain/riscv/Linux/bin/../lib/gcc/riscv64-unknown-elf/8.3.0/rv32imf/ilp32f/libgcc.a(_clz.o)

.debug_aranges  0x0000000000000000     0x15d8
 .debug_aranges
                0x0000000000000000       0x20 /home/shoaib/bl_iot_sdk/customer_app/sdk_app_helloworld/build_out/bl602/libbl602.a(start.o)
 .debug_aranges
                0x0000000000000020       0x80 /home/shoaib/bl_iot_sdk/customer_app/sdk_app_helloworld/build_out/hal_drv/libhal_drv.a(hal_boot2.o)
 .debug_aranges
                0x00000000000000a0       0x40 /home/shoaib/bl_iot_sdk/customer_app/sdk_app_helloworld/build_out/sdk_app_helloworld/libsdk_app_helloworld.a(main.o)
 .debug_aranges
                0x00000000000000e0       0x20 /home/shoaib/bl_iot_sdk/customer_app/sdk_app_helloworld/build_out/sdk_app_helloworld/libsdk_app_helloworld.a(led.o)
 .debug_aranges
                0x0000000000000100       0x88 /home/shoaib/bl_iot_sdk/customer_app/sdk_app_helloworld/build_out/bl602/libbl602.a(debug.o)
 .debug_aranges
                0x0000000000000188      0x208 /home/shoaib/bl_iot_sdk/customer_app/sdk_app_helloworld/build_out/freertos_riscv_ram/libfreertos_riscv_ram.a(tasks.o)
 .debug_aranges
                0x0000000000000390       0xb8 /home/shoaib/bl_iot_sdk/customer_app/sdk_app_helloworld/build_out/freertos_riscv_ram/libfreertos_riscv_ram.a(timers.o)
 .debug_aranges
                0x0000000000000448       0x30 /home/shoaib/bl_iot_sdk/customer_app/sdk_app_helloworld/build_out/freertos_riscv_ram/libfreertos_riscv_ram.a(port.o)
 .debug_aranges
                0x0000000000000478       0x20 /home/shoaib/bl_iot_sdk/customer_app/sdk_app_helloworld/build_out/freertos_riscv_ram/libfreertos_riscv_ram.a(portASM.o)
 .debug_aranges
                0x0000000000000498       0x50 /home/shoaib/bl_iot_sdk/customer_app/sdk_app_helloworld/build_out/freertos_riscv_ram/libfreertos_riscv_ram.a(heap_5.o)
 .debug_aranges
                0x00000000000004e8       0x40 /home/shoaib/bl_iot_sdk/customer_app/sdk_app_helloworld/build_out/freertos_riscv_ram/libfreertos_riscv_ram.a(list.o)
 .debug_aranges
                0x0000000000000528      0x120 /home/shoaib/bl_iot_sdk/customer_app/sdk_app_helloworld/build_out/freertos_riscv_ram/libfreertos_riscv_ram.a(queue.o)
 .debug_aranges
                0x0000000000000648       0xb8 /home/shoaib/bl_iot_sdk/customer_app/sdk_app_helloworld/build_out/hal_drv/libhal_drv.a(bl_uart.o)
 .debug_aranges
                0x0000000000000700       0x60 /home/shoaib/bl_iot_sdk/customer_app/sdk_app_helloworld/build_out/hal_drv/libhal_drv.a(bl_sys.o)
 .debug_aranges
                0x0000000000000760       0x80 /home/shoaib/bl_iot_sdk/customer_app/sdk_app_helloworld/build_out/hal_drv/libhal_drv.a(bl_irq.o)
 .debug_aranges
                0x00000000000007e0       0x68 /home/shoaib/bl_iot_sdk/customer_app/sdk_app_helloworld/build_out/hal_drv/libhal_drv.a(bl_gpio.o)
 .debug_aranges
                0x0000000000000848       0x48 /home/shoaib/bl_iot_sdk/customer_app/sdk_app_helloworld/build_out/sdk_app_helloworld/libsdk_app_helloworld.a(freertos.o)
 .debug_aranges
                0x0000000000000890      0x108 /home/shoaib/bl_iot_sdk/customer_app/sdk_app_helloworld/build_out/bl602_std/libbl602_std.a(bl602_uart.o)
 .debug_aranges
                0x0000000000000998      0x288 /home/shoaib/bl_iot_sdk/customer_app/sdk_app_helloworld/build_out/bl602_std/libbl602_std.a(bl602_glb.o)
 .debug_aranges
                0x0000000000000c20      0x1f8 /home/shoaib/bl_iot_sdk/customer_app/sdk_app_helloworld/build_out/bl602_std/libbl602_std.a(bl602_hbn.o)
 .debug_aranges
                0x0000000000000e18      0x568 /home/shoaib/bl_iot_sdk/customer_app/sdk_app_helloworld/build_out/bl602_std/libbl602_std.a(bl602_romapi.o)
 .debug_aranges
                0x0000000000001380       0x40 /home/shoaib/bl_iot_sdk/customer_app/sdk_app_helloworld/build_out/bltime/libbltime.a(bl_sys_time.o)
 .debug_aranges
                0x00000000000013c0       0x30 /home/shoaib/bl_iot_sdk/customer_app/sdk_app_helloworld/build_out/freertos_riscv_ram/libfreertos_riscv_ram.a(misaligned_ldst.o)
 .debug_aranges
                0x00000000000013f0       0x20 /home/shoaib/bl_iot_sdk/customer_app/sdk_app_helloworld/build_out/freertos_riscv_ram/libfreertos_riscv_ram.a(fp_asm.o)
 .debug_aranges
                0x0000000000001410       0x20 /home/shoaib/bl_iot_sdk/customer_app/sdk_app_helloworld/build_out/freertos_riscv_ram/libfreertos_riscv_ram.a(panic_c.o)
 .debug_aranges
                0x0000000000001430       0x30 /home/shoaib/bl_iot_sdk/customer_app/sdk_app_helloworld/build_out/hal_drv/libhal_drv.a(bl_rtc.o)
 .debug_aranges
                0x0000000000001460       0x20 /home/shoaib/bl_iot_sdk/toolchain/riscv/Linux/bin/../lib/gcc/riscv64-unknown-elf/8.3.0/rv32imf/ilp32f/libgcc.a(_clzsi2.o)
 .debug_aranges
                0x0000000000001480       0x20 /home/shoaib/bl_iot_sdk/toolchain/riscv/Linux/bin/../lib/gcc/riscv64-unknown-elf/8.3.0/rv32imf/ilp32f/libgcc.a(_udivdi3.o)
 .debug_aranges
                0x00000000000014a0       0x20 /home/shoaib/bl_iot_sdk/toolchain/riscv/Linux/bin/../lib/gcc/riscv64-unknown-elf/8.3.0/rv32imf/ilp32f/libgcc.a(_umoddi3.o)
 .debug_aranges
                0x00000000000014c0       0x20 /home/shoaib/bl_iot_sdk/toolchain/riscv/Linux/bin/../lib/gcc/riscv64-unknown-elf/8.3.0/rv32imf/ilp32f/libgcc.a(adddf3.o)
 .debug_aranges
                0x00000000000014e0       0x20 /home/shoaib/bl_iot_sdk/toolchain/riscv/Linux/bin/../lib/gcc/riscv64-unknown-elf/8.3.0/rv32imf/ilp32f/libgcc.a(divdf3.o)
 .debug_aranges
                0x0000000000001500       0x20 /home/shoaib/bl_iot_sdk/toolchain/riscv/Linux/bin/../lib/gcc/riscv64-unknown-elf/8.3.0/rv32imf/ilp32f/libgcc.a(eqdf2.o)
 .debug_aranges
                0x0000000000001520       0x20 /home/shoaib/bl_iot_sdk/toolchain/riscv/Linux/bin/../lib/gcc/riscv64-unknown-elf/8.3.0/rv32imf/ilp32f/libgcc.a(gedf2.o)
 .debug_aranges
                0x0000000000001540       0x20 /home/shoaib/bl_iot_sdk/toolchain/riscv/Linux/bin/../lib/gcc/riscv64-unknown-elf/8.3.0/rv32imf/ilp32f/libgcc.a(ledf2.o)
 .debug_aranges
                0x0000000000001560       0x20 /home/shoaib/bl_iot_sdk/toolchain/riscv/Linux/bin/../lib/gcc/riscv64-unknown-elf/8.3.0/rv32imf/ilp32f/libgcc.a(muldf3.o)
 .debug_aranges
                0x0000000000001580       0x20 /home/shoaib/bl_iot_sdk/toolchain/riscv/Linux/bin/../lib/gcc/riscv64-unknown-elf/8.3.0/rv32imf/ilp32f/libgcc.a(subdf3.o)
 .debug_aranges
                0x00000000000015a0       0x20 /home/shoaib/bl_iot_sdk/toolchain/riscv/Linux/bin/../lib/gcc/riscv64-unknown-elf/8.3.0/rv32imf/ilp32f/libgcc.a(fixdfsi.o)
 .debug_aranges
                0x00000000000015c0       0x18 /home/shoaib/bl_iot_sdk/toolchain/riscv/Linux/bin/../lib/gcc/riscv64-unknown-elf/8.3.0/rv32imf/ilp32f/libgcc.a(_clz.o)

.debug_str      0x0000000000000000     0x9a89
 .debug_str     0x0000000000000000       0x9c /home/shoaib/bl_iot_sdk/customer_app/sdk_app_helloworld/build_out/bl602/libbl602.a(start.o)
 .debug_str     0x000000000000009c      0x94b /home/shoaib/bl_iot_sdk/customer_app/sdk_app_helloworld/build_out/hal_drv/libhal_drv.a(hal_boot2.o)
                                        0xa5d (size before relaxing)
 .debug_str     0x00000000000009e7      0x2c1 /home/shoaib/bl_iot_sdk/customer_app/sdk_app_helloworld/build_out/sdk_app_helloworld/libsdk_app_helloworld.a(main.o)
                                        0x893 (size before relaxing)
 .debug_str     0x0000000000000ca8       0x7a /home/shoaib/bl_iot_sdk/customer_app/sdk_app_helloworld/build_out/sdk_app_helloworld/libsdk_app_helloworld.a(led.o)
                                        0x68e (size before relaxing)
 .debug_str     0x0000000000000d22      0x2dc /home/shoaib/bl_iot_sdk/customer_app/sdk_app_helloworld/build_out/bl602/libbl602.a(debug.o)
                                        0x8e4 (size before relaxing)
 .debug_str     0x0000000000000ffe     0x10c0 /home/shoaib/bl_iot_sdk/customer_app/sdk_app_helloworld/build_out/freertos_riscv_ram/libfreertos_riscv_ram.a(tasks.o)
                                       0x1758 (size before relaxing)
 .debug_str     0x00000000000020be      0x725 /home/shoaib/bl_iot_sdk/customer_app/sdk_app_helloworld/build_out/freertos_riscv_ram/libfreertos_riscv_ram.a(timers.o)
                                       0x103c (size before relaxing)
 .debug_str     0x00000000000027e3      0x14c /home/shoaib/bl_iot_sdk/customer_app/sdk_app_helloworld/build_out/freertos_riscv_ram/libfreertos_riscv_ram.a(port.o)
                                        0x36f (size before relaxing)
 .debug_str     0x000000000000292f       0x5a /home/shoaib/bl_iot_sdk/customer_app/sdk_app_helloworld/build_out/freertos_riscv_ram/libfreertos_riscv_ram.a(portASM.o)
                                         0xbb (size before relaxing)
 .debug_str     0x0000000000002989      0x264 /home/shoaib/bl_iot_sdk/customer_app/sdk_app_helloworld/build_out/freertos_riscv_ram/libfreertos_riscv_ram.a(heap_5.o)
                                        0x8b9 (size before relaxing)
 .debug_str     0x0000000000002bed       0x79 /home/shoaib/bl_iot_sdk/customer_app/sdk_app_helloworld/build_out/freertos_riscv_ram/libfreertos_riscv_ram.a(list.o)
                                        0x731 (size before relaxing)
 .debug_str     0x0000000000002c66      0x595 /home/shoaib/bl_iot_sdk/customer_app/sdk_app_helloworld/build_out/freertos_riscv_ram/libfreertos_riscv_ram.a(queue.o)
                                       0x1044 (size before relaxing)
 .debug_str     0x00000000000031fb      0xb48 /home/shoaib/bl_iot_sdk/customer_app/sdk_app_helloworld/build_out/hal_drv/libhal_drv.a(bl_uart.o)
                                       0x1150 (size before relaxing)
 .debug_str     0x0000000000003d43      0x17e /home/shoaib/bl_iot_sdk/customer_app/sdk_app_helloworld/build_out/hal_drv/libhal_drv.a(bl_sys.o)
                                        0x78f (size before relaxing)
 .debug_str     0x0000000000003ec1      0x228 /home/shoaib/bl_iot_sdk/customer_app/sdk_app_helloworld/build_out/hal_drv/libhal_drv.a(bl_irq.o)
                                        0x856 (size before relaxing)
 .debug_str     0x00000000000040e9      0x331 /home/shoaib/bl_iot_sdk/customer_app/sdk_app_helloworld/build_out/hal_drv/libhal_drv.a(bl_gpio.o)
                                        0xd22 (size before relaxing)
 .debug_str     0x000000000000441a      0x140 /home/shoaib/bl_iot_sdk/customer_app/sdk_app_helloworld/build_out/sdk_app_helloworld/libsdk_app_helloworld.a(freertos.o)
                                        0x8ad (size before relaxing)
 .debug_str     0x000000000000455a      0x5f9 /home/shoaib/bl_iot_sdk/customer_app/sdk_app_helloworld/build_out/bl602_std/libbl602_std.a(bl602_uart.o)
                                        0xf35 (size before relaxing)
 .debug_str     0x0000000000004b53     0x10bc /home/shoaib/bl_iot_sdk/customer_app/sdk_app_helloworld/build_out/bl602_std/libbl602_std.a(bl602_glb.o)
                                       0x1eb1 (size before relaxing)
 .debug_str     0x0000000000005c0f      0xed1 /home/shoaib/bl_iot_sdk/customer_app/sdk_app_helloworld/build_out/bl602_std/libbl602_std.a(bl602_hbn.o)
                                       0x1939 (size before relaxing)
 .debug_str     0x0000000000006ae0     0x21b4 /home/shoaib/bl_iot_sdk/customer_app/sdk_app_helloworld/build_out/bl602_std/libbl602_std.a(bl602_romapi.o)
                                       0x4467 (size before relaxing)
 .debug_str     0x0000000000008c94      0x15d /home/shoaib/bl_iot_sdk/customer_app/sdk_app_helloworld/build_out/bltime/libbltime.a(bl_sys_time.o)
                                        0x759 (size before relaxing)
 .debug_str     0x0000000000008df1       0xed /home/shoaib/bl_iot_sdk/customer_app/sdk_app_helloworld/build_out/freertos_riscv_ram/libfreertos_riscv_ram.a(misaligned_ldst.o)
                                        0x305 (size before relaxing)
 .debug_str     0x0000000000008ede       0x50 /home/shoaib/bl_iot_sdk/customer_app/sdk_app_helloworld/build_out/freertos_riscv_ram/libfreertos_riscv_ram.a(fp_asm.o)
                                         0xb1 (size before relaxing)
 .debug_str     0x0000000000008f2e       0x73 /home/shoaib/bl_iot_sdk/customer_app/sdk_app_helloworld/build_out/freertos_riscv_ram/libfreertos_riscv_ram.a(panic_c.o)
                                        0x5fc (size before relaxing)
 .debug_str     0x0000000000008fa1       0x5d /home/shoaib/bl_iot_sdk/customer_app/sdk_app_helloworld/build_out/hal_drv/libhal_drv.a(bl_rtc.o)
                                        0x6a4 (size before relaxing)
 .debug_str     0x0000000000008ffe      0x34c /home/shoaib/bl_iot_sdk/toolchain/riscv/Linux/bin/../lib/gcc/riscv64-unknown-elf/8.3.0/rv32imf/ilp32f/libgcc.a(_clzsi2.o)
                                        0x805 (size before relaxing)
 .debug_str     0x000000000000934a      0x132 /home/shoaib/bl_iot_sdk/toolchain/riscv/Linux/bin/../lib/gcc/riscv64-unknown-elf/8.3.0/rv32imf/ilp32f/libgcc.a(_udivdi3.o)
                                        0x8a1 (size before relaxing)
 .debug_str     0x000000000000947c        0xa /home/shoaib/bl_iot_sdk/toolchain/riscv/Linux/bin/../lib/gcc/riscv64-unknown-elf/8.3.0/rv32imf/ilp32f/libgcc.a(_umoddi3.o)
                                        0x8a1 (size before relaxing)
 .debug_str     0x0000000000009486      0x194 /home/shoaib/bl_iot_sdk/toolchain/riscv/Linux/bin/../lib/gcc/riscv64-unknown-elf/8.3.0/rv32imf/ilp32f/libgcc.a(adddf3.o)
                                        0x367 (size before relaxing)
 .debug_str     0x000000000000961a      0x19c /home/shoaib/bl_iot_sdk/toolchain/riscv/Linux/bin/../lib/gcc/riscv64-unknown-elf/8.3.0/rv32imf/ilp32f/libgcc.a(divdf3.o)
                                        0x429 (size before relaxing)
 .debug_str     0x00000000000097b6       0x57 /home/shoaib/bl_iot_sdk/toolchain/riscv/Linux/bin/../lib/gcc/riscv64-unknown-elf/8.3.0/rv32imf/ilp32f/libgcc.a(eqdf2.o)
                                        0x281 (size before relaxing)
 .debug_str     0x000000000000980d       0x5c /home/shoaib/bl_iot_sdk/toolchain/riscv/Linux/bin/../lib/gcc/riscv64-unknown-elf/8.3.0/rv32imf/ilp32f/libgcc.a(gedf2.o)
                                        0x2a5 (size before relaxing)
 .debug_str     0x0000000000009869       0x38 /home/shoaib/bl_iot_sdk/toolchain/riscv/Linux/bin/../lib/gcc/riscv64-unknown-elf/8.3.0/rv32imf/ilp32f/libgcc.a(ledf2.o)
                                        0x2a5 (size before relaxing)
 .debug_str     0x00000000000098a1      0x15f /home/shoaib/bl_iot_sdk/toolchain/riscv/Linux/bin/../lib/gcc/riscv64-unknown-elf/8.3.0/rv32imf/ilp32f/libgcc.a(muldf3.o)
                                        0x481 (size before relaxing)
 .debug_str     0x0000000000009a00       0x3a /home/shoaib/bl_iot_sdk/toolchain/riscv/Linux/bin/../lib/gcc/riscv64-unknown-elf/8.3.0/rv32imf/ilp32f/libgcc.a(subdf3.o)
                                        0x367 (size before relaxing)
 .debug_str     0x0000000000009a3a       0x4f /home/shoaib/bl_iot_sdk/toolchain/riscv/Linux/bin/../lib/gcc/riscv64-unknown-elf/8.3.0/rv32imf/ilp32f/libgcc.a(fixdfsi.o)
                                        0x27e (size before relaxing)
 .debug_str     0x0000000000009a89      0x7e8 /home/shoaib/bl_iot_sdk/toolchain/riscv/Linux/bin/../lib/gcc/riscv64-unknown-elf/8.3.0/rv32imf/ilp32f/libgcc.a(_clz.o)

.debug_loc      0x0000000000000000    0x186a6
 .debug_loc     0x0000000000000000      0x775 /home/shoaib/bl_iot_sdk/customer_app/sdk_app_helloworld/build_out/hal_drv/libhal_drv.a(hal_boot2.o)
 .debug_loc     0x0000000000000775      0x113 /home/shoaib/bl_iot_sdk/customer_app/sdk_app_helloworld/build_out/sdk_app_helloworld/libsdk_app_helloworld.a(main.o)
 .debug_loc     0x0000000000000888       0x21 /home/shoaib/bl_iot_sdk/customer_app/sdk_app_helloworld/build_out/sdk_app_helloworld/libsdk_app_helloworld.a(led.o)
 .debug_loc     0x00000000000008a9     0x233d /home/shoaib/bl_iot_sdk/customer_app/sdk_app_helloworld/build_out/bl602/libbl602.a(debug.o)
 .debug_loc     0x0000000000002be6     0x2a0f /home/shoaib/bl_iot_sdk/customer_app/sdk_app_helloworld/build_out/freertos_riscv_ram/libfreertos_riscv_ram.a(tasks.o)
 .debug_loc     0x00000000000055f5     0x1309 /home/shoaib/bl_iot_sdk/customer_app/sdk_app_helloworld/build_out/freertos_riscv_ram/libfreertos_riscv_ram.a(timers.o)
 .debug_loc     0x00000000000068fe       0x35 /home/shoaib/bl_iot_sdk/customer_app/sdk_app_helloworld/build_out/freertos_riscv_ram/libfreertos_riscv_ram.a(port.o)
 .debug_loc     0x0000000000006933      0x4b9 /home/shoaib/bl_iot_sdk/customer_app/sdk_app_helloworld/build_out/freertos_riscv_ram/libfreertos_riscv_ram.a(heap_5.o)
 .debug_loc     0x0000000000006dec       0x6b /home/shoaib/bl_iot_sdk/customer_app/sdk_app_helloworld/build_out/freertos_riscv_ram/libfreertos_riscv_ram.a(list.o)
 .debug_loc     0x0000000000006e57     0x22fe /home/shoaib/bl_iot_sdk/customer_app/sdk_app_helloworld/build_out/freertos_riscv_ram/libfreertos_riscv_ram.a(queue.o)
 .debug_loc     0x0000000000009155      0x5e6 /home/shoaib/bl_iot_sdk/customer_app/sdk_app_helloworld/build_out/hal_drv/libhal_drv.a(bl_uart.o)
 .debug_loc     0x000000000000973b       0x4e /home/shoaib/bl_iot_sdk/customer_app/sdk_app_helloworld/build_out/hal_drv/libhal_drv.a(bl_sys.o)
 .debug_loc     0x0000000000009789      0x57a /home/shoaib/bl_iot_sdk/customer_app/sdk_app_helloworld/build_out/hal_drv/libhal_drv.a(bl_irq.o)
 .debug_loc     0x0000000000009d03      0x452 /home/shoaib/bl_iot_sdk/customer_app/sdk_app_helloworld/build_out/hal_drv/libhal_drv.a(bl_gpio.o)
 .debug_loc     0x000000000000a155       0x40 /home/shoaib/bl_iot_sdk/customer_app/sdk_app_helloworld/build_out/sdk_app_helloworld/libsdk_app_helloworld.a(freertos.o)
 .debug_loc     0x000000000000a195     0x10b9 /home/shoaib/bl_iot_sdk/customer_app/sdk_app_helloworld/build_out/bl602_std/libbl602_std.a(bl602_uart.o)
 .debug_loc     0x000000000000b24e     0x1b1b /home/shoaib/bl_iot_sdk/customer_app/sdk_app_helloworld/build_out/bl602_std/libbl602_std.a(bl602_glb.o)
 .debug_loc     0x000000000000cd69     0x1008 /home/shoaib/bl_iot_sdk/customer_app/sdk_app_helloworld/build_out/bl602_std/libbl602_std.a(bl602_hbn.o)
 .debug_loc     0x000000000000dd71     0x1c9e /home/shoaib/bl_iot_sdk/customer_app/sdk_app_helloworld/build_out/bl602_std/libbl602_std.a(bl602_romapi.o)
 .debug_loc     0x000000000000fa0f      0x19e /home/shoaib/bl_iot_sdk/customer_app/sdk_app_helloworld/build_out/bltime/libbltime.a(bl_sys_time.o)
 .debug_loc     0x000000000000fbad      0x566 /home/shoaib/bl_iot_sdk/customer_app/sdk_app_helloworld/build_out/freertos_riscv_ram/libfreertos_riscv_ram.a(misaligned_ldst.o)
 .debug_loc     0x0000000000010113       0x21 /home/shoaib/bl_iot_sdk/customer_app/sdk_app_helloworld/build_out/freertos_riscv_ram/libfreertos_riscv_ram.a(panic_c.o)
 .debug_loc     0x0000000000010134       0x18 /home/shoaib/bl_iot_sdk/customer_app/sdk_app_helloworld/build_out/hal_drv/libhal_drv.a(bl_rtc.o)
 .debug_loc     0x000000000001014c       0x6b /home/shoaib/bl_iot_sdk/toolchain/riscv/Linux/bin/../lib/gcc/riscv64-unknown-elf/8.3.0/rv32imf/ilp32f/libgcc.a(_clzsi2.o)
 .debug_loc     0x00000000000101b7      0xbd0 /home/shoaib/bl_iot_sdk/toolchain/riscv/Linux/bin/../lib/gcc/riscv64-unknown-elf/8.3.0/rv32imf/ilp32f/libgcc.a(_udivdi3.o)
 .debug_loc     0x0000000000010d87      0x969 /home/shoaib/bl_iot_sdk/toolchain/riscv/Linux/bin/../lib/gcc/riscv64-unknown-elf/8.3.0/rv32imf/ilp32f/libgcc.a(_umoddi3.o)
 .debug_loc     0x00000000000116f0     0x1dad /home/shoaib/bl_iot_sdk/toolchain/riscv/Linux/bin/../lib/gcc/riscv64-unknown-elf/8.3.0/rv32imf/ilp32f/libgcc.a(adddf3.o)
 .debug_loc     0x000000000001349d     0x16c9 /home/shoaib/bl_iot_sdk/toolchain/riscv/Linux/bin/../lib/gcc/riscv64-unknown-elf/8.3.0/rv32imf/ilp32f/libgcc.a(divdf3.o)
 .debug_loc     0x0000000000014b66      0x192 /home/shoaib/bl_iot_sdk/toolchain/riscv/Linux/bin/../lib/gcc/riscv64-unknown-elf/8.3.0/rv32imf/ilp32f/libgcc.a(eqdf2.o)
 .debug_loc     0x0000000000014cf8      0x156 /home/shoaib/bl_iot_sdk/toolchain/riscv/Linux/bin/../lib/gcc/riscv64-unknown-elf/8.3.0/rv32imf/ilp32f/libgcc.a(gedf2.o)
 .debug_loc     0x0000000000014e4e      0x156 /home/shoaib/bl_iot_sdk/toolchain/riscv/Linux/bin/../lib/gcc/riscv64-unknown-elf/8.3.0/rv32imf/ilp32f/libgcc.a(ledf2.o)
 .debug_loc     0x0000000000014fa4     0x112d /home/shoaib/bl_iot_sdk/toolchain/riscv/Linux/bin/../lib/gcc/riscv64-unknown-elf/8.3.0/rv32imf/ilp32f/libgcc.a(muldf3.o)
 .debug_loc     0x00000000000160d1     0x2366 /home/shoaib/bl_iot_sdk/toolchain/riscv/Linux/bin/../lib/gcc/riscv64-unknown-elf/8.3.0/rv32imf/ilp32f/libgcc.a(subdf3.o)
 .debug_loc     0x0000000000018437      0x26f /home/shoaib/bl_iot_sdk/toolchain/riscv/Linux/bin/../lib/gcc/riscv64-unknown-elf/8.3.0/rv32imf/ilp32f/libgcc.a(fixdfsi.o)

.debug_ranges   0x0000000000000000     0x2c68
 .debug_ranges  0x0000000000000000       0xa0 /home/shoaib/bl_iot_sdk/customer_app/sdk_app_helloworld/build_out/hal_drv/libhal_drv.a(hal_boot2.o)
 .debug_ranges  0x00000000000000a0       0x30 /home/shoaib/bl_iot_sdk/customer_app/sdk_app_helloworld/build_out/sdk_app_helloworld/libsdk_app_helloworld.a(main.o)
 .debug_ranges  0x00000000000000d0       0x10 /home/shoaib/bl_iot_sdk/customer_app/sdk_app_helloworld/build_out/sdk_app_helloworld/libsdk_app_helloworld.a(led.o)
 .debug_ranges  0x00000000000000e0      0x138 /home/shoaib/bl_iot_sdk/customer_app/sdk_app_helloworld/build_out/bl602/libbl602.a(debug.o)
 .debug_ranges  0x0000000000000218      0x780 /home/shoaib/bl_iot_sdk/customer_app/sdk_app_helloworld/build_out/freertos_riscv_ram/libfreertos_riscv_ram.a(tasks.o)
 .debug_ranges  0x0000000000000998      0x218 /home/shoaib/bl_iot_sdk/customer_app/sdk_app_helloworld/build_out/freertos_riscv_ram/libfreertos_riscv_ram.a(timers.o)
 .debug_ranges  0x0000000000000bb0       0x40 /home/shoaib/bl_iot_sdk/customer_app/sdk_app_helloworld/build_out/freertos_riscv_ram/libfreertos_riscv_ram.a(port.o)
 .debug_ranges  0x0000000000000bf0       0x40 /home/shoaib/bl_iot_sdk/customer_app/sdk_app_helloworld/build_out/freertos_riscv_ram/libfreertos_riscv_ram.a(heap_5.o)
 .debug_ranges  0x0000000000000c30       0x30 /home/shoaib/bl_iot_sdk/customer_app/sdk_app_helloworld/build_out/freertos_riscv_ram/libfreertos_riscv_ram.a(list.o)
 .debug_ranges  0x0000000000000c60      0x340 /home/shoaib/bl_iot_sdk/customer_app/sdk_app_helloworld/build_out/freertos_riscv_ram/libfreertos_riscv_ram.a(queue.o)
 .debug_ranges  0x0000000000000fa0       0xc0 /home/shoaib/bl_iot_sdk/customer_app/sdk_app_helloworld/build_out/hal_drv/libhal_drv.a(bl_uart.o)
 .debug_ranges  0x0000000000001060       0x80 /home/shoaib/bl_iot_sdk/customer_app/sdk_app_helloworld/build_out/hal_drv/libhal_drv.a(bl_sys.o)
 .debug_ranges  0x00000000000010e0       0xa8 /home/shoaib/bl_iot_sdk/customer_app/sdk_app_helloworld/build_out/hal_drv/libhal_drv.a(bl_irq.o)
 .debug_ranges  0x0000000000001188       0x88 /home/shoaib/bl_iot_sdk/customer_app/sdk_app_helloworld/build_out/hal_drv/libhal_drv.a(bl_gpio.o)
 .debug_ranges  0x0000000000001210       0x38 /home/shoaib/bl_iot_sdk/customer_app/sdk_app_helloworld/build_out/sdk_app_helloworld/libsdk_app_helloworld.a(freertos.o)
 .debug_ranges  0x0000000000001248       0xf8 /home/shoaib/bl_iot_sdk/customer_app/sdk_app_helloworld/build_out/bl602_std/libbl602_std.a(bl602_uart.o)
 .debug_ranges  0x0000000000001340      0x2a8 /home/shoaib/bl_iot_sdk/customer_app/sdk_app_helloworld/build_out/bl602_std/libbl602_std.a(bl602_glb.o)
 .debug_ranges  0x00000000000015e8      0x1e8 /home/shoaib/bl_iot_sdk/customer_app/sdk_app_helloworld/build_out/bl602_std/libbl602_std.a(bl602_hbn.o)
 .debug_ranges  0x00000000000017d0      0x558 /home/shoaib/bl_iot_sdk/customer_app/sdk_app_helloworld/build_out/bl602_std/libbl602_std.a(bl602_romapi.o)
 .debug_ranges  0x0000000000001d28       0x30 /home/shoaib/bl_iot_sdk/customer_app/sdk_app_helloworld/build_out/bltime/libbltime.a(bl_sys_time.o)
 .debug_ranges  0x0000000000001d58      0x150 /home/shoaib/bl_iot_sdk/customer_app/sdk_app_helloworld/build_out/freertos_riscv_ram/libfreertos_riscv_ram.a(misaligned_ldst.o)
 .debug_ranges  0x0000000000001ea8       0x10 /home/shoaib/bl_iot_sdk/customer_app/sdk_app_helloworld/build_out/freertos_riscv_ram/libfreertos_riscv_ram.a(panic_c.o)
 .debug_ranges  0x0000000000001eb8       0x20 /home/shoaib/bl_iot_sdk/customer_app/sdk_app_helloworld/build_out/hal_drv/libhal_drv.a(bl_rtc.o)
 .debug_ranges  0x0000000000001ed8       0x20 /home/shoaib/bl_iot_sdk/toolchain/riscv/Linux/bin/../lib/gcc/riscv64-unknown-elf/8.3.0/rv32imf/ilp32f/libgcc.a(_clzsi2.o)
 .debug_ranges  0x0000000000001ef8      0x100 /home/shoaib/bl_iot_sdk/toolchain/riscv/Linux/bin/../lib/gcc/riscv64-unknown-elf/8.3.0/rv32imf/ilp32f/libgcc.a(_udivdi3.o)
 .debug_ranges  0x0000000000001ff8       0xd0 /home/shoaib/bl_iot_sdk/toolchain/riscv/Linux/bin/../lib/gcc/riscv64-unknown-elf/8.3.0/rv32imf/ilp32f/libgcc.a(_umoddi3.o)
 .debug_ranges  0x00000000000020c8      0x2f0 /home/shoaib/bl_iot_sdk/toolchain/riscv/Linux/bin/../lib/gcc/riscv64-unknown-elf/8.3.0/rv32imf/ilp32f/libgcc.a(adddf3.o)
 .debug_ranges  0x00000000000023b8      0x1d0 /home/shoaib/bl_iot_sdk/toolchain/riscv/Linux/bin/../lib/gcc/riscv64-unknown-elf/8.3.0/rv32imf/ilp32f/libgcc.a(divdf3.o)
 .debug_ranges  0x0000000000002588       0x60 /home/shoaib/bl_iot_sdk/toolchain/riscv/Linux/bin/../lib/gcc/riscv64-unknown-elf/8.3.0/rv32imf/ilp32f/libgcc.a(eqdf2.o)
 .debug_ranges  0x00000000000025e8       0x68 /home/shoaib/bl_iot_sdk/toolchain/riscv/Linux/bin/../lib/gcc/riscv64-unknown-elf/8.3.0/rv32imf/ilp32f/libgcc.a(gedf2.o)
 .debug_ranges  0x0000000000002650       0x68 /home/shoaib/bl_iot_sdk/toolchain/riscv/Linux/bin/../lib/gcc/riscv64-unknown-elf/8.3.0/rv32imf/ilp32f/libgcc.a(ledf2.o)
 .debug_ranges  0x00000000000026b8      0x230 /home/shoaib/bl_iot_sdk/toolchain/riscv/Linux/bin/../lib/gcc/riscv64-unknown-elf/8.3.0/rv32imf/ilp32f/libgcc.a(muldf3.o)
 .debug_ranges  0x00000000000028e8      0x330 /home/shoaib/bl_iot_sdk/toolchain/riscv/Linux/bin/../lib/gcc/riscv64-unknown-elf/8.3.0/rv32imf/ilp32f/libgcc.a(subdf3.o)
 .debug_ranges  0x0000000000002c18       0x50 /home/shoaib/bl_iot_sdk/toolchain/riscv/Linux/bin/../lib/gcc/riscv64-unknown-elf/8.3.0/rv32imf/ilp32f/libgcc.a(fixdfsi.o)

.debug_frame    0x0000000000000000     0x3a7c
 .debug_frame   0x0000000000000000      0x1e0 /home/shoaib/bl_iot_sdk/customer_app/sdk_app_helloworld/build_out/hal_drv/libhal_drv.a(hal_boot2.o)
 .debug_frame   0x00000000000001e0       0xb4 /home/shoaib/bl_iot_sdk/customer_app/sdk_app_helloworld/build_out/sdk_app_helloworld/libsdk_app_helloworld.a(main.o)
 .debug_frame   0x0000000000000294       0x30 /home/shoaib/bl_iot_sdk/customer_app/sdk_app_helloworld/build_out/sdk_app_helloworld/libsdk_app_helloworld.a(led.o)
 .debug_frame   0x00000000000002c4      0x254 /home/shoaib/bl_iot_sdk/customer_app/sdk_app_helloworld/build_out/bl602/libbl602.a(debug.o)
 .debug_frame   0x0000000000000518      0xa80 /home/shoaib/bl_iot_sdk/customer_app/sdk_app_helloworld/build_out/freertos_riscv_ram/libfreertos_riscv_ram.a(tasks.o)
 .debug_frame   0x0000000000000f98      0x334 /home/shoaib/bl_iot_sdk/customer_app/sdk_app_helloworld/build_out/freertos_riscv_ram/libfreertos_riscv_ram.a(timers.o)
 .debug_frame   0x00000000000012cc       0x50 /home/shoaib/bl_iot_sdk/customer_app/sdk_app_helloworld/build_out/freertos_riscv_ram/libfreertos_riscv_ram.a(port.o)
 .debug_frame   0x000000000000131c      0x10c /home/shoaib/bl_iot_sdk/customer_app/sdk_app_helloworld/build_out/freertos_riscv_ram/libfreertos_riscv_ram.a(heap_5.o)
 .debug_frame   0x0000000000001428       0x60 /home/shoaib/bl_iot_sdk/customer_app/sdk_app_helloworld/build_out/freertos_riscv_ram/libfreertos_riscv_ram.a(list.o)
 .debug_frame   0x0000000000001488      0x57c /home/shoaib/bl_iot_sdk/customer_app/sdk_app_helloworld/build_out/freertos_riscv_ram/libfreertos_riscv_ram.a(queue.o)
 .debug_frame   0x0000000000001a04      0x248 /home/shoaib/bl_iot_sdk/customer_app/sdk_app_helloworld/build_out/hal_drv/libhal_drv.a(bl_uart.o)
 .debug_frame   0x0000000000001c4c       0xd4 /home/shoaib/bl_iot_sdk/customer_app/sdk_app_helloworld/build_out/hal_drv/libhal_drv.a(bl_sys.o)
 .debug_frame   0x0000000000001d20      0x12c /home/shoaib/bl_iot_sdk/customer_app/sdk_app_helloworld/build_out/hal_drv/libhal_drv.a(bl_irq.o)
 .debug_frame   0x0000000000001e4c      0x114 /home/shoaib/bl_iot_sdk/customer_app/sdk_app_helloworld/build_out/hal_drv/libhal_drv.a(bl_gpio.o)
 .debug_frame   0x0000000000001f60       0x8c /home/shoaib/bl_iot_sdk/customer_app/sdk_app_helloworld/build_out/sdk_app_helloworld/libsdk_app_helloworld.a(freertos.o)
 .debug_frame   0x0000000000001fec      0x274 /home/shoaib/bl_iot_sdk/customer_app/sdk_app_helloworld/build_out/bl602_std/libbl602_std.a(bl602_uart.o)
 .debug_frame   0x0000000000002260      0x574 /home/shoaib/bl_iot_sdk/customer_app/sdk_app_helloworld/build_out/bl602_std/libbl602_std.a(bl602_glb.o)
 .debug_frame   0x00000000000027d4      0x48c /home/shoaib/bl_iot_sdk/customer_app/sdk_app_helloworld/build_out/bl602_std/libbl602_std.a(bl602_hbn.o)
 .debug_frame   0x0000000000002c60      0xab0 /home/shoaib/bl_iot_sdk/customer_app/sdk_app_helloworld/build_out/bl602_std/libbl602_std.a(bl602_romapi.o)
 .debug_frame   0x0000000000003710       0xb4 /home/shoaib/bl_iot_sdk/customer_app/sdk_app_helloworld/build_out/bltime/libbltime.a(bl_sys_time.o)
 .debug_frame   0x00000000000037c4       0x5c /home/shoaib/bl_iot_sdk/customer_app/sdk_app_helloworld/build_out/freertos_riscv_ram/libfreertos_riscv_ram.a(misaligned_ldst.o)
 .debug_frame   0x0000000000003820       0x20 /home/shoaib/bl_iot_sdk/customer_app/sdk_app_helloworld/build_out/freertos_riscv_ram/libfreertos_riscv_ram.a(panic_c.o)
 .debug_frame   0x0000000000003840       0x64 /home/shoaib/bl_iot_sdk/customer_app/sdk_app_helloworld/build_out/hal_drv/libhal_drv.a(bl_rtc.o)
 .debug_frame   0x00000000000038a4       0x20 /home/shoaib/bl_iot_sdk/toolchain/riscv/Linux/bin/../lib/gcc/riscv64-unknown-elf/8.3.0/rv32imf/ilp32f/libgcc.a(_clzsi2.o)
 .debug_frame   0x00000000000038c4       0x44 /home/shoaib/bl_iot_sdk/toolchain/riscv/Linux/bin/../lib/gcc/riscv64-unknown-elf/8.3.0/rv32imf/ilp32f/libgcc.a(adddf3.o)
 .debug_frame   0x0000000000003908       0x58 /home/shoaib/bl_iot_sdk/toolchain/riscv/Linux/bin/../lib/gcc/riscv64-unknown-elf/8.3.0/rv32imf/ilp32f/libgcc.a(divdf3.o)
 .debug_frame   0x0000000000003960       0x20 /home/shoaib/bl_iot_sdk/toolchain/riscv/Linux/bin/../lib/gcc/riscv64-unknown-elf/8.3.0/rv32imf/ilp32f/libgcc.a(eqdf2.o)
 .debug_frame   0x0000000000003980       0x20 /home/shoaib/bl_iot_sdk/toolchain/riscv/Linux/bin/../lib/gcc/riscv64-unknown-elf/8.3.0/rv32imf/ilp32f/libgcc.a(gedf2.o)
 .debug_frame   0x00000000000039a0       0x20 /home/shoaib/bl_iot_sdk/toolchain/riscv/Linux/bin/../lib/gcc/riscv64-unknown-elf/8.3.0/rv32imf/ilp32f/libgcc.a(ledf2.o)
 .debug_frame   0x00000000000039c0       0x58 /home/shoaib/bl_iot_sdk/toolchain/riscv/Linux/bin/../lib/gcc/riscv64-unknown-elf/8.3.0/rv32imf/ilp32f/libgcc.a(muldf3.o)
 .debug_frame   0x0000000000003a18       0x44 /home/shoaib/bl_iot_sdk/toolchain/riscv/Linux/bin/../lib/gcc/riscv64-unknown-elf/8.3.0/rv32imf/ilp32f/libgcc.a(subdf3.o)
 .debug_frame   0x0000000000003a5c       0x20 /home/shoaib/bl_iot_sdk/toolchain/riscv/Linux/bin/../lib/gcc/riscv64-unknown-elf/8.3.0/rv32imf/ilp32f/libgcc.a(fixdfsi.o)

Cross Reference Table

Symbol                                            File
AON_Get_Xtal_CapCode                              /home/shoaib/bl_iot_sdk/customer_app/sdk_app_helloworld/build_out/bl602_std/libbl602_std.a(bl602_romapi.o)
                                                  /home/shoaib/bl_iot_sdk/customer_app/sdk_app_helloworld/build_out/bl602_std/libbl602_std.a(bl602_aon.o)
AON_LowPower_Enter_PDS0                           /home/shoaib/bl_iot_sdk/customer_app/sdk_app_helloworld/build_out/bl602_std/libbl602_std.a(bl602_romapi.o)
                                                  /home/shoaib/bl_iot_sdk/customer_app/sdk_app_helloworld/build_out/bl602_std/libbl602_std.a(bl602_aon.o)
AON_LowPower_Exit_PDS0                            /home/shoaib/bl_iot_sdk/customer_app/sdk_app_helloworld/build_out/bl602_std/libbl602_std.a(bl602_romapi.o)
                                                  /home/shoaib/bl_iot_sdk/customer_app/sdk_app_helloworld/build_out/bl602_std/libbl602_std.a(bl602_aon.o)
AON_Power_Off_BG                                  /home/shoaib/bl_iot_sdk/customer_app/sdk_app_helloworld/build_out/bl602_std/libbl602_std.a(bl602_romapi.o)
                                                  /home/shoaib/bl_iot_sdk/customer_app/sdk_app_helloworld/build_out/bl602_std/libbl602_std.a(bl602_aon.o)
AON_Power_Off_LDO11_SOC                           /home/shoaib/bl_iot_sdk/customer_app/sdk_app_helloworld/build_out/bl602_std/libbl602_std.a(bl602_romapi.o)
                                                  /home/shoaib/bl_iot_sdk/customer_app/sdk_app_helloworld/build_out/bl602_std/libbl602_std.a(bl602_aon.o)
AON_Power_Off_LDO15_RF                            /home/shoaib/bl_iot_sdk/customer_app/sdk_app_helloworld/build_out/bl602_std/libbl602_std.a(bl602_romapi.o)
                                                  /home/shoaib/bl_iot_sdk/customer_app/sdk_app_helloworld/build_out/bl602_std/libbl602_std.a(bl602_aon.o)
AON_Power_Off_MBG                                 /home/shoaib/bl_iot_sdk/customer_app/sdk_app_helloworld/build_out/bl602_std/libbl602_std.a(bl602_romapi.o)
                                                  /home/shoaib/bl_iot_sdk/customer_app/sdk_app_helloworld/build_out/bl602_std/libbl602_std.a(bl602_aon.o)
AON_Power_Off_SFReg                               /home/shoaib/bl_iot_sdk/customer_app/sdk_app_helloworld/build_out/bl602_std/libbl602_std.a(bl602_romapi.o)
                                                  /home/shoaib/bl_iot_sdk/customer_app/sdk_app_helloworld/build_out/bl602_std/libbl602_std.a(bl602_aon.o)
AON_Power_Off_XTAL                                /home/shoaib/bl_iot_sdk/customer_app/sdk_app_helloworld/build_out/bl602_std/libbl602_std.a(bl602_romapi.o)
                                                  /home/shoaib/bl_iot_sdk/customer_app/sdk_app_helloworld/build_out/bl602_std/libbl602_std.a(bl602_aon.o)
AON_Power_On_BG                                   /home/shoaib/bl_iot_sdk/customer_app/sdk_app_helloworld/build_out/bl602_std/libbl602_std.a(bl602_romapi.o)
                                                  /home/shoaib/bl_iot_sdk/customer_app/sdk_app_helloworld/build_out/bl602_std/libbl602_std.a(bl602_aon.o)
AON_Power_On_LDO11_SOC                            /home/shoaib/bl_iot_sdk/customer_app/sdk_app_helloworld/build_out/bl602_std/libbl602_std.a(bl602_romapi.o)
                                                  /home/shoaib/bl_iot_sdk/customer_app/sdk_app_helloworld/build_out/bl602_std/libbl602_std.a(bl602_aon.o)
AON_Power_On_LDO15_RF                             /home/shoaib/bl_iot_sdk/customer_app/sdk_app_helloworld/build_out/bl602_std/libbl602_std.a(bl602_romapi.o)
                                                  /home/shoaib/bl_iot_sdk/customer_app/sdk_app_helloworld/build_out/bl602_std/libbl602_std.a(bl602_aon.o)
AON_Power_On_MBG                                  /home/shoaib/bl_iot_sdk/customer_app/sdk_app_helloworld/build_out/bl602_std/libbl602_std.a(bl602_romapi.o)
                                                  /home/shoaib/bl_iot_sdk/customer_app/sdk_app_helloworld/build_out/bl602_std/libbl602_std.a(bl602_aon.o)
AON_Power_On_SFReg                                /home/shoaib/bl_iot_sdk/customer_app/sdk_app_helloworld/build_out/bl602_std/libbl602_std.a(bl602_romapi.o)
                                                  /home/shoaib/bl_iot_sdk/customer_app/sdk_app_helloworld/build_out/bl602_std/libbl602_std.a(bl602_aon.o)
AON_Power_On_XTAL                                 /home/shoaib/bl_iot_sdk/customer_app/sdk_app_helloworld/build_out/bl602_std/libbl602_std.a(bl602_romapi.o)
                                                  /home/shoaib/bl_iot_sdk/customer_app/sdk_app_helloworld/build_out/bl602_std/libbl602_std.a(bl602_aon.o)
                                                  /home/shoaib/bl_iot_sdk/customer_app/sdk_app_helloworld/build_out/bl602_std/libbl602_std.a(bl602_glb.o)
AON_Set_LDO11_SOC_Sstart_Delay                    /home/shoaib/bl_iot_sdk/customer_app/sdk_app_helloworld/build_out/bl602_std/libbl602_std.a(bl602_aon.o)
AON_Set_Xtal_CapCode                              /home/shoaib/bl_iot_sdk/customer_app/sdk_app_helloworld/build_out/bl602_std/libbl602_std.a(bl602_romapi.o)
                                                  /home/shoaib/bl_iot_sdk/customer_app/sdk_app_helloworld/build_out/bl602_std/libbl602_std.a(bl602_aon.o)
ASM_Delay_Us                                      /home/shoaib/bl_iot_sdk/customer_app/sdk_app_helloworld/build_out/bl602_std/libbl602_std.a(bl602_romapi.o)
BFLB_Soft_CRC16                                   /home/shoaib/bl_iot_sdk/customer_app/sdk_app_helloworld/build_out/bl602_std/libbl602_std.a(softcrc.o)
BFLB_Soft_CRC32                                   /home/shoaib/bl_iot_sdk/customer_app/sdk_app_helloworld/build_out/bl602_std/libbl602_std.a(bl602_romapi.o)
                                                  /home/shoaib/bl_iot_sdk/customer_app/sdk_app_helloworld/build_out/bl602_std/libbl602_std.a(softcrc.o)
                                                  /home/shoaib/bl_iot_sdk/customer_app/sdk_app_helloworld/build_out/hal_drv/libhal_drv.a(bl_boot2.o)
BFLB_Soft_CRC32_Table                             /home/shoaib/bl_iot_sdk/customer_app/sdk_app_helloworld/build_out/bl602_std/libbl602_std.a(softcrc.o)
BL602_Delay_MS                                    /home/shoaib/bl_iot_sdk/customer_app/sdk_app_helloworld/build_out/bl602_std/libbl602_std.a(bl602_romapi.o)
                                                  /home/shoaib/bl_iot_sdk/customer_app/sdk_app_helloworld/build_out/bl602_std/libbl602_std.a(bl602_hbn.o)
BL602_Delay_US                                    /home/shoaib/bl_iot_sdk/customer_app/sdk_app_helloworld/build_out/bl602_std/libbl602_std.a(bl602_romapi.o)
                                                  /home/shoaib/bl_iot_sdk/customer_app/sdk_app_helloworld/build_out/bl602_std/libbl602_std.a(bl602_ef_ctrl.o)
                                                  /home/shoaib/bl_iot_sdk/customer_app/sdk_app_helloworld/build_out/bl602_std/libbl602_std.a(bl602_pds.o)
                                                  /home/shoaib/bl_iot_sdk/customer_app/sdk_app_helloworld/build_out/bl602_std/libbl602_std.a(bl602_aon.o)
                                                  /home/shoaib/bl_iot_sdk/customer_app/sdk_app_helloworld/build_out/bl602_std/libbl602_std.a(bl602_hbn.o)
                                                  /home/shoaib/bl_iot_sdk/customer_app/sdk_app_helloworld/build_out/bl602_std/libbl602_std.a(bl602_glb.o)
BL602_MemCmp                                      /home/shoaib/bl_iot_sdk/customer_app/sdk_app_helloworld/build_out/bl602_std/libbl602_std.a(bl602_romapi.o)
BL602_MemCpy                                      /home/shoaib/bl_iot_sdk/customer_app/sdk_app_helloworld/build_out/bl602_std/libbl602_std.a(bl602_romapi.o)
BL602_MemCpy4                                     /home/shoaib/bl_iot_sdk/customer_app/sdk_app_helloworld/build_out/bl602_std/libbl602_std.a(bl602_romapi.o)
                                                  /home/shoaib/bl_iot_sdk/customer_app/sdk_app_helloworld/build_out/bl602_std/libbl602_std.a(bl602_ef_ctrl.o)
BL602_MemCpy_Fast                                 /home/shoaib/bl_iot_sdk/customer_app/sdk_app_helloworld/build_out/bl602_std/libbl602_std.a(bl602_romapi.o)
BL602_MemSet                                      /home/shoaib/bl_iot_sdk/customer_app/sdk_app_helloworld/build_out/bl602_std/libbl602_std.a(bl602_romapi.o)
BL602_MemSet4                                     /home/shoaib/bl_iot_sdk/customer_app/sdk_app_helloworld/build_out/bl602_std/libbl602_std.a(bl602_romapi.o)
BMX_ERR_INT_Callback_Install                      /home/shoaib/bl_iot_sdk/customer_app/sdk_app_helloworld/build_out/bl602_std/libbl602_std.a(bl602_glb.o)
BMX_TIMEOUT_INT_Callback_Install                  /home/shoaib/bl_iot_sdk/customer_app/sdk_app_helloworld/build_out/bl602_std/libbl602_std.a(bl602_glb.o)
EF_Ctrl_AutoLoad_Done                             /home/shoaib/bl_iot_sdk/customer_app/sdk_app_helloworld/build_out/bl602_std/libbl602_std.a(bl602_romapi.o)
                                                  /home/shoaib/bl_iot_sdk/customer_app/sdk_app_helloworld/build_out/bl602_std/libbl602_std.a(bl602_ef_ctrl.o)
EF_Ctrl_Busy                                      /home/shoaib/bl_iot_sdk/customer_app/sdk_app_helloworld/build_out/bl602_std/libbl602_std.a(bl602_romapi.o)
                                                  /home/shoaib/bl_iot_sdk/customer_app/sdk_app_helloworld/build_out/bl602_std/libbl602_std.a(bl602_ef_ctrl.o)
EF_Ctrl_Clear                                     /home/shoaib/bl_iot_sdk/customer_app/sdk_app_helloworld/build_out/bl602_std/libbl602_std.a(bl602_romapi.o)
                                                  /home/shoaib/bl_iot_sdk/customer_app/sdk_app_helloworld/build_out/bl602_std/libbl602_std.a(bl602_ef_ctrl.o)
EF_Ctrl_Crc_Enable                                /home/shoaib/bl_iot_sdk/customer_app/sdk_app_helloworld/build_out/bl602_std/libbl602_std.a(bl602_ef_ctrl.o)
EF_Ctrl_Crc_Is_Busy                               /home/shoaib/bl_iot_sdk/customer_app/sdk_app_helloworld/build_out/bl602_std/libbl602_std.a(bl602_ef_ctrl.o)
EF_Ctrl_Crc_Result                                /home/shoaib/bl_iot_sdk/customer_app/sdk_app_helloworld/build_out/bl602_std/libbl602_std.a(bl602_ef_ctrl.o)
EF_Ctrl_Crc_Set_Golden                            /home/shoaib/bl_iot_sdk/customer_app/sdk_app_helloworld/build_out/bl602_std/libbl602_std.a(bl602_ef_ctrl.o)
EF_Ctrl_Get_Trim_Enable                           /home/shoaib/bl_iot_sdk/customer_app/sdk_app_helloworld/build_out/bl602_std/libbl602_std.a(bl602_ef_ctrl.o)
EF_Ctrl_Get_Trim_Parity                           /home/shoaib/bl_iot_sdk/customer_app/sdk_app_helloworld/build_out/bl602_std/libbl602_std.a(bl602_romapi.o)
                                                  /home/shoaib/bl_iot_sdk/customer_app/sdk_app_helloworld/build_out/bl602_std/libbl602_std.a(bl602_ef_ctrl.o)
                                                  /home/shoaib/bl_iot_sdk/customer_app/sdk_app_helloworld/build_out/bl602_std/libbl602_std.a(bl602_pds.o)
                                                  /home/shoaib/bl_iot_sdk/customer_app/sdk_app_helloworld/build_out/bl602_std/libbl602_std.a(bl602_hbn.o)
EF_Ctrl_Is_All_Bits_Zero                          /home/shoaib/bl_iot_sdk/customer_app/sdk_app_helloworld/build_out/bl602_std/libbl602_std.a(bl602_ef_ctrl.o)
EF_Ctrl_Is_CapCode_Slot_Empty                     /home/shoaib/bl_iot_sdk/customer_app/sdk_app_helloworld/build_out/bl602_std/libbl602_std.a(bl602_ef_ctrl.o)
EF_Ctrl_Is_MAC_Address_Slot_Empty                 /home/shoaib/bl_iot_sdk/customer_app/sdk_app_helloworld/build_out/bl602_std/libbl602_std.a(bl602_ef_ctrl.o)
EF_Ctrl_Is_PowerOffset_Slot_Empty                 /home/shoaib/bl_iot_sdk/customer_app/sdk_app_helloworld/build_out/bl602_std/libbl602_std.a(bl602_ef_ctrl.o)
EF_Ctrl_Load_Efuse_R0                             /home/shoaib/bl_iot_sdk/customer_app/sdk_app_helloworld/build_out/bl602_std/libbl602_std.a(bl602_romapi.o)
                                                  /home/shoaib/bl_iot_sdk/customer_app/sdk_app_helloworld/build_out/bl602_std/libbl602_std.a(bl602_ef_ctrl.o)
EF_Ctrl_Program_Direct_R0                         /home/shoaib/bl_iot_sdk/customer_app/sdk_app_helloworld/build_out/bl602_std/libbl602_std.a(bl602_ef_ctrl.o)
EF_Ctrl_Program_Efuse_0                           /home/shoaib/bl_iot_sdk/customer_app/sdk_app_helloworld/build_out/bl602_std/libbl602_std.a(bl602_romapi.o)
                                                  /home/shoaib/bl_iot_sdk/customer_app/sdk_app_helloworld/build_out/bl602_std/libbl602_std.a(bl602_ef_ctrl.o)
EF_Ctrl_Read_ADC_Gain_Trim                        /home/shoaib/bl_iot_sdk/customer_app/sdk_app_helloworld/build_out/bl602_std/libbl602_std.a(bl602_ef_ctrl.o)
EF_Ctrl_Read_AES_Key                              /home/shoaib/bl_iot_sdk/customer_app/sdk_app_helloworld/build_out/bl602_std/libbl602_std.a(bl602_ef_ctrl.o)
EF_Ctrl_Read_Ana_Trim                             /home/shoaib/bl_iot_sdk/customer_app/sdk_app_helloworld/build_out/bl602_std/libbl602_std.a(bl602_ef_ctrl.o)
EF_Ctrl_Read_CapCode_Opt                          /home/shoaib/bl_iot_sdk/customer_app/sdk_app_helloworld/build_out/bl602_std/libbl602_std.a(bl602_ef_ctrl.o)
EF_Ctrl_Read_Chip_ID                              /home/shoaib/bl_iot_sdk/customer_app/sdk_app_helloworld/build_out/bl602_std/libbl602_std.a(bl602_ef_ctrl.o)
EF_Ctrl_Read_Dbg_Pwd                              /home/shoaib/bl_iot_sdk/customer_app/sdk_app_helloworld/build_out/bl602_std/libbl602_std.a(bl602_ef_ctrl.o)
EF_Ctrl_Read_Device_Info                          /home/shoaib/bl_iot_sdk/customer_app/sdk_app_helloworld/build_out/bl602_std/libbl602_std.a(bl602_ef_ctrl.o)
EF_Ctrl_Read_Direct_R0                            /home/shoaib/bl_iot_sdk/customer_app/sdk_app_helloworld/build_out/bl602_std/libbl602_std.a(bl602_ef_ctrl.o)
EF_Ctrl_Read_MAC_Address                          /home/shoaib/bl_iot_sdk/customer_app/sdk_app_helloworld/build_out/bl602_std/libbl602_std.a(bl602_ef_ctrl.o)
EF_Ctrl_Read_MAC_Address_Opt                      /home/shoaib/bl_iot_sdk/customer_app/sdk_app_helloworld/build_out/bl602_std/libbl602_std.a(bl602_ef_ctrl.o)
EF_Ctrl_Read_MAC_Address_Raw                      /home/shoaib/bl_iot_sdk/customer_app/sdk_app_helloworld/build_out/bl602_std/libbl602_std.a(bl602_ef_ctrl.o)
EF_Ctrl_Read_PowerOffset_Opt                      /home/shoaib/bl_iot_sdk/customer_app/sdk_app_helloworld/build_out/bl602_std/libbl602_std.a(bl602_ef_ctrl.o)
EF_Ctrl_Read_R0                                   /home/shoaib/bl_iot_sdk/customer_app/sdk_app_helloworld/build_out/bl602_std/libbl602_std.a(bl602_ef_ctrl.o)
EF_Ctrl_Read_RC32K_Trim                           /home/shoaib/bl_iot_sdk/customer_app/sdk_app_helloworld/build_out/bl602_std/libbl602_std.a(bl602_romapi.o)
                                                  /home/shoaib/bl_iot_sdk/customer_app/sdk_app_helloworld/build_out/bl602_std/libbl602_std.a(bl602_ef_ctrl.o)
                                                  /home/shoaib/bl_iot_sdk/customer_app/sdk_app_helloworld/build_out/bl602_std/libbl602_std.a(bl602_hbn.o)
EF_Ctrl_Read_RC32M_Trim                           /home/shoaib/bl_iot_sdk/customer_app/sdk_app_helloworld/build_out/bl602_std/libbl602_std.a(bl602_romapi.o)
                                                  /home/shoaib/bl_iot_sdk/customer_app/sdk_app_helloworld/build_out/bl602_std/libbl602_std.a(bl602_ef_ctrl.o)
                                                  /home/shoaib/bl_iot_sdk/customer_app/sdk_app_helloworld/build_out/bl602_std/libbl602_std.a(bl602_pds.o)
EF_Ctrl_Read_Secure_Boot                          /home/shoaib/bl_iot_sdk/customer_app/sdk_app_helloworld/build_out/bl602_std/libbl602_std.a(bl602_ef_ctrl.o)
EF_Ctrl_Read_Secure_Cfg                           /home/shoaib/bl_iot_sdk/customer_app/sdk_app_helloworld/build_out/bl602_std/libbl602_std.a(bl602_ef_ctrl.o)
EF_Ctrl_Read_Sw_Usage                             /home/shoaib/bl_iot_sdk/customer_app/sdk_app_helloworld/build_out/bl602_std/libbl602_std.a(bl602_ef_ctrl.o)
EF_Ctrl_Read_TSEN_Trim                            /home/shoaib/bl_iot_sdk/customer_app/sdk_app_helloworld/build_out/bl602_std/libbl602_std.a(bl602_ef_ctrl.o)
EF_Ctrl_Readlock_AES_Key                          /home/shoaib/bl_iot_sdk/customer_app/sdk_app_helloworld/build_out/bl602_std/libbl602_std.a(bl602_ef_ctrl.o)
EF_Ctrl_Readlock_Dbg_Pwd                          /home/shoaib/bl_iot_sdk/customer_app/sdk_app_helloworld/build_out/bl602_std/libbl602_std.a(bl602_ef_ctrl.o)
EF_Ctrl_Sw_AHB_Clk_0                              /home/shoaib/bl_iot_sdk/customer_app/sdk_app_helloworld/build_out/bl602_std/libbl602_std.a(bl602_romapi.o)
                                                  /home/shoaib/bl_iot_sdk/customer_app/sdk_app_helloworld/build_out/bl602_std/libbl602_std.a(bl602_ef_ctrl.o)
EF_Ctrl_Write_AES_Key                             /home/shoaib/bl_iot_sdk/customer_app/sdk_app_helloworld/build_out/bl602_std/libbl602_std.a(bl602_ef_ctrl.o)
EF_Ctrl_Write_Ana_Trim                            /home/shoaib/bl_iot_sdk/customer_app/sdk_app_helloworld/build_out/bl602_std/libbl602_std.a(bl602_ef_ctrl.o)
EF_Ctrl_Write_CapCode_Opt                         /home/shoaib/bl_iot_sdk/customer_app/sdk_app_helloworld/build_out/bl602_std/libbl602_std.a(bl602_ef_ctrl.o)
EF_Ctrl_Write_Dbg_Pwd                             /home/shoaib/bl_iot_sdk/customer_app/sdk_app_helloworld/build_out/bl602_std/libbl602_std.a(bl602_ef_ctrl.o)
EF_Ctrl_Write_MAC_Address                         /home/shoaib/bl_iot_sdk/customer_app/sdk_app_helloworld/build_out/bl602_std/libbl602_std.a(bl602_ef_ctrl.o)
EF_Ctrl_Write_MAC_Address_Opt                     /home/shoaib/bl_iot_sdk/customer_app/sdk_app_helloworld/build_out/bl602_std/libbl602_std.a(bl602_ef_ctrl.o)
EF_Ctrl_Write_PowerOffset_Opt                     /home/shoaib/bl_iot_sdk/customer_app/sdk_app_helloworld/build_out/bl602_std/libbl602_std.a(bl602_ef_ctrl.o)
EF_Ctrl_Write_R0                                  /home/shoaib/bl_iot_sdk/customer_app/sdk_app_helloworld/build_out/bl602_std/libbl602_std.a(bl602_ef_ctrl.o)
EF_Ctrl_Write_Secure_Boot                         /home/shoaib/bl_iot_sdk/customer_app/sdk_app_helloworld/build_out/bl602_std/libbl602_std.a(bl602_ef_ctrl.o)
EF_Ctrl_Write_Secure_Cfg                          /home/shoaib/bl_iot_sdk/customer_app/sdk_app_helloworld/build_out/bl602_std/libbl602_std.a(bl602_ef_ctrl.o)
EF_Ctrl_Write_Sw_Usage                            /home/shoaib/bl_iot_sdk/customer_app/sdk_app_helloworld/build_out/bl602_std/libbl602_std.a(bl602_ef_ctrl.o)
EF_Ctrl_Writelock_AES_Key                         /home/shoaib/bl_iot_sdk/customer_app/sdk_app_helloworld/build_out/bl602_std/libbl602_std.a(bl602_ef_ctrl.o)
EF_Ctrl_Writelock_Dbg_Pwd                         /home/shoaib/bl_iot_sdk/customer_app/sdk_app_helloworld/build_out/bl602_std/libbl602_std.a(bl602_ef_ctrl.o)
EF_Ctrl_Writelock_MAC_Address                     /home/shoaib/bl_iot_sdk/customer_app/sdk_app_helloworld/build_out/bl602_std/libbl602_std.a(bl602_ef_ctrl.o)
EF_Ctrl_Writelock_Sw_Usage                        /home/shoaib/bl_iot_sdk/customer_app/sdk_app_helloworld/build_out/bl602_std/libbl602_std.a(bl602_ef_ctrl.o)
GLB_AHB_Slave1_Clock_Gate                         /home/shoaib/bl_iot_sdk/customer_app/sdk_app_helloworld/build_out/bl602_std/libbl602_std.a(bl602_glb.o)
GLB_AHB_Slave1_Reset                              /home/shoaib/bl_iot_sdk/customer_app/sdk_app_helloworld/build_out/bl602_std/libbl602_std.a(bl602_glb.o)
                                                  /home/shoaib/bl_iot_sdk/customer_app/sdk_app_helloworld/build_out/bl602_std/libbl602_std.a(bl602_uart.o)
GLB_BMX_Addr_Monitor_Disable                      /home/shoaib/bl_iot_sdk/customer_app/sdk_app_helloworld/build_out/bl602_std/libbl602_std.a(bl602_glb.o)
GLB_BMX_Addr_Monitor_Enable                       /home/shoaib/bl_iot_sdk/customer_app/sdk_app_helloworld/build_out/bl602_std/libbl602_std.a(bl602_glb.o)
GLB_BMX_BusErrResponse_Disable                    /home/shoaib/bl_iot_sdk/customer_app/sdk_app_helloworld/build_out/bl602_std/libbl602_std.a(bl602_glb.o)
GLB_BMX_BusErrResponse_Enable                     /home/shoaib/bl_iot_sdk/customer_app/sdk_app_helloworld/build_out/bl602_std/libbl602_std.a(bl602_glb.o)
GLB_BMX_Get_Err_Addr                              /home/shoaib/bl_iot_sdk/customer_app/sdk_app_helloworld/build_out/bl602_std/libbl602_std.a(bl602_glb.o)
GLB_BMX_Get_Status                                /home/shoaib/bl_iot_sdk/customer_app/sdk_app_helloworld/build_out/bl602_std/libbl602_std.a(bl602_glb.o)
GLB_BMX_Init                                      /home/shoaib/bl_iot_sdk/customer_app/sdk_app_helloworld/build_out/bl602_std/libbl602_std.a(bl602_glb.o)
GLB_Clr_GPIO_IntStatus                            /home/shoaib/bl_iot_sdk/customer_app/sdk_app_helloworld/build_out/bl602_std/libbl602_std.a(bl602_glb.o)
GLB_Deswap_Flash_Pin                              /home/shoaib/bl_iot_sdk/customer_app/sdk_app_helloworld/build_out/bl602_std/libbl602_std.a(bl602_romapi.o)
                                                  /home/shoaib/bl_iot_sdk/customer_app/sdk_app_helloworld/build_out/bl602_std/libbl602_std.a(bl602_glb.o)
GLB_GPIO_Func_Init                                /home/shoaib/bl_iot_sdk/customer_app/sdk_app_helloworld/build_out/bl602_std/libbl602_std.a(bl602_glb.o)
GLB_GPIO_Get_Fun                                  /home/shoaib/bl_iot_sdk/customer_app/sdk_app_helloworld/build_out/bl602_std/libbl602_std.a(bl602_romapi.o)
                                                  /home/shoaib/bl_iot_sdk/customer_app/sdk_app_helloworld/build_out/bl602_std/libbl602_std.a(bl602_glb.o)
GLB_GPIO_Get_Real_Fun                             /home/shoaib/bl_iot_sdk/customer_app/sdk_app_helloworld/build_out/bl602_std/libbl602_std.a(bl602_glb.o)
GLB_GPIO_INPUT_Disable                            /home/shoaib/bl_iot_sdk/customer_app/sdk_app_helloworld/build_out/bl602_std/libbl602_std.a(bl602_glb.o)
GLB_GPIO_INPUT_Enable                             /home/shoaib/bl_iot_sdk/customer_app/sdk_app_helloworld/build_out/bl602_std/libbl602_std.a(bl602_glb.o)
GLB_GPIO_INT0_Callback_Install                    /home/shoaib/bl_iot_sdk/customer_app/sdk_app_helloworld/build_out/bl602_std/libbl602_std.a(bl602_glb.o)
GLB_GPIO_Init                                     /home/shoaib/bl_iot_sdk/customer_app/sdk_app_helloworld/build_out/bl602_std/libbl602_std.a(bl602_romapi.o)
                                                  /home/shoaib/bl_iot_sdk/customer_app/sdk_app_helloworld/build_out/bl602_std/libbl602_std.a(bl602_glb.o)
                                                  /home/shoaib/bl_iot_sdk/customer_app/sdk_app_helloworld/build_out/hal_drv/libhal_drv.a(bl_gpio.o)
                                                  /home/shoaib/bl_iot_sdk/customer_app/sdk_app_helloworld/build_out/hal_drv/libhal_drv.a(bl_uart.o)
GLB_GPIO_IntClear                                 /home/shoaib/bl_iot_sdk/customer_app/sdk_app_helloworld/build_out/bl602_std/libbl602_std.a(bl602_glb.o)
GLB_GPIO_IntMask                                  /home/shoaib/bl_iot_sdk/customer_app/sdk_app_helloworld/build_out/bl602_std/libbl602_std.a(bl602_glb.o)
                                                  /home/shoaib/bl_iot_sdk/customer_app/sdk_app_helloworld/build_out/hal_drv/libhal_drv.a(bl_gpio.o)
GLB_GPIO_OUTPUT_Disable                           /home/shoaib/bl_iot_sdk/customer_app/sdk_app_helloworld/build_out/bl602_std/libbl602_std.a(bl602_romapi.o)
                                                  /home/shoaib/bl_iot_sdk/customer_app/sdk_app_helloworld/build_out/bl602_std/libbl602_std.a(bl602_glb.o)
GLB_GPIO_OUTPUT_Enable                            /home/shoaib/bl_iot_sdk/customer_app/sdk_app_helloworld/build_out/bl602_std/libbl602_std.a(bl602_romapi.o)
                                                  /home/shoaib/bl_iot_sdk/customer_app/sdk_app_helloworld/build_out/bl602_std/libbl602_std.a(bl602_glb.o)
GLB_GPIO_Read                                     /home/shoaib/bl_iot_sdk/customer_app/sdk_app_helloworld/build_out/bl602_std/libbl602_std.a(bl602_glb.o)
                                                  /home/shoaib/bl_iot_sdk/customer_app/sdk_app_helloworld/build_out/hal_drv/libhal_drv.a(bl_gpio.o)
GLB_GPIO_Set_HZ                                   /home/shoaib/bl_iot_sdk/customer_app/sdk_app_helloworld/build_out/bl602_std/libbl602_std.a(bl602_romapi.o)
                                                  /home/shoaib/bl_iot_sdk/customer_app/sdk_app_helloworld/build_out/bl602_std/libbl602_std.a(bl602_glb.o)
GLB_GPIO_Write                                    /home/shoaib/bl_iot_sdk/customer_app/sdk_app_helloworld/build_out/bl602_std/libbl602_std.a(bl602_glb.o)
                                                  /home/shoaib/bl_iot_sdk/customer_app/sdk_app_helloworld/build_out/hal_drv/libhal_drv.a(bl_gpio.o)
GLB_Get_BCLK_Div                                  /home/shoaib/bl_iot_sdk/customer_app/sdk_app_helloworld/build_out/bl602_std/libbl602_std.a(bl602_romapi.o)
                                                  /home/shoaib/bl_iot_sdk/customer_app/sdk_app_helloworld/build_out/bl602_std/libbl602_std.a(bl602_glb.o)
GLB_Get_GPIO_IntCtlMod                            /home/shoaib/bl_iot_sdk/customer_app/sdk_app_helloworld/build_out/bl602_std/libbl602_std.a(bl602_glb.o)
GLB_Get_GPIO_IntStatus                            /home/shoaib/bl_iot_sdk/customer_app/sdk_app_helloworld/build_out/bl602_std/libbl602_std.a(bl602_glb.o)
GLB_Get_HCLK_Div                                  /home/shoaib/bl_iot_sdk/customer_app/sdk_app_helloworld/build_out/bl602_std/libbl602_std.a(bl602_romapi.o)
                                                  /home/shoaib/bl_iot_sdk/customer_app/sdk_app_helloworld/build_out/bl602_std/libbl602_std.a(bl602_glb.o)
GLB_Get_Root_CLK_Sel                              /home/shoaib/bl_iot_sdk/customer_app/sdk_app_helloworld/build_out/bl602_std/libbl602_std.a(bl602_romapi.o)
                                                  /home/shoaib/bl_iot_sdk/customer_app/sdk_app_helloworld/build_out/bl602_std/libbl602_std.a(bl602_glb.o)
GLB_Get_SRAM_PARM                                 /home/shoaib/bl_iot_sdk/customer_app/sdk_app_helloworld/build_out/bl602_std/libbl602_std.a(bl602_glb.o)
GLB_Get_SRAM_RET                                  /home/shoaib/bl_iot_sdk/customer_app/sdk_app_helloworld/build_out/bl602_std/libbl602_std.a(bl602_glb.o)
GLB_Get_SRAM_SLP                                  /home/shoaib/bl_iot_sdk/customer_app/sdk_app_helloworld/build_out/bl602_std/libbl602_std.a(bl602_glb.o)
GLB_IR_LED_Driver_Disable                         /home/shoaib/bl_iot_sdk/customer_app/sdk_app_helloworld/build_out/bl602_std/libbl602_std.a(bl602_glb.o)
GLB_IR_LED_Driver_Enable                          /home/shoaib/bl_iot_sdk/customer_app/sdk_app_helloworld/build_out/bl602_std/libbl602_std.a(bl602_glb.o)
GLB_IR_LED_Driver_Ibias                           /home/shoaib/bl_iot_sdk/customer_app/sdk_app_helloworld/build_out/bl602_std/libbl602_std.a(bl602_glb.o)
GLB_IR_RX_GPIO_Sel                                /home/shoaib/bl_iot_sdk/customer_app/sdk_app_helloworld/build_out/bl602_std/libbl602_std.a(bl602_glb.o)
GLB_JTAG_Sig_Swap_Set                             /home/shoaib/bl_iot_sdk/customer_app/sdk_app_helloworld/build_out/bl602_std/libbl602_std.a(bl602_glb.o)
GLB_Platform_Wakeup_Disable                       /home/shoaib/bl_iot_sdk/customer_app/sdk_app_helloworld/build_out/bl602_std/libbl602_std.a(bl602_glb.o)
GLB_Platform_Wakeup_Enable                        /home/shoaib/bl_iot_sdk/customer_app/sdk_app_helloworld/build_out/bl602_std/libbl602_std.a(bl602_glb.o)
GLB_SW_CPU_Reset                                  /home/shoaib/bl_iot_sdk/customer_app/sdk_app_helloworld/build_out/bl602_std/libbl602_std.a(bl602_romapi.o)
                                                  /home/shoaib/bl_iot_sdk/customer_app/sdk_app_helloworld/build_out/bl602_std/libbl602_std.a(bl602_glb.o)
GLB_SW_POR_Reset                                  /home/shoaib/bl_iot_sdk/customer_app/sdk_app_helloworld/build_out/bl602_std/libbl602_std.a(bl602_romapi.o)
                                                  /home/shoaib/bl_iot_sdk/customer_app/sdk_app_helloworld/build_out/bl602_std/libbl602_std.a(bl602_glb.o)
                                                  /home/shoaib/bl_iot_sdk/customer_app/sdk_app_helloworld/build_out/hal_drv/libhal_drv.a(bl_sys.o)
GLB_SW_System_Reset                               /home/shoaib/bl_iot_sdk/customer_app/sdk_app_helloworld/build_out/bl602_std/libbl602_std.a(bl602_romapi.o)
                                                  /home/shoaib/bl_iot_sdk/customer_app/sdk_app_helloworld/build_out/bl602_std/libbl602_std.a(bl602_glb.o)
                                                  /home/shoaib/bl_iot_sdk/customer_app/sdk_app_helloworld/build_out/hal_drv/libhal_drv.a(bl_sys.o)
GLB_Select_External_Flash                         /home/shoaib/bl_iot_sdk/customer_app/sdk_app_helloworld/build_out/bl602_std/libbl602_std.a(bl602_romapi.o)
                                                  /home/shoaib/bl_iot_sdk/customer_app/sdk_app_helloworld/build_out/bl602_std/libbl602_std.a(bl602_glb.o)
GLB_Select_Internal_Flash                         /home/shoaib/bl_iot_sdk/customer_app/sdk_app_helloworld/build_out/bl602_std/libbl602_std.a(bl602_romapi.o)
                                                  /home/shoaib/bl_iot_sdk/customer_app/sdk_app_helloworld/build_out/bl602_std/libbl602_std.a(bl602_glb.o)
GLB_Set_ADC_CLK                                   /home/shoaib/bl_iot_sdk/customer_app/sdk_app_helloworld/build_out/bl602_std/libbl602_std.a(bl602_glb.o)
GLB_Set_BLE_CLK                                   /home/shoaib/bl_iot_sdk/customer_app/sdk_app_helloworld/build_out/bl602_std/libbl602_std.a(bl602_glb.o)
GLB_Set_BT_Coex_Signal                            /home/shoaib/bl_iot_sdk/customer_app/sdk_app_helloworld/build_out/bl602_std/libbl602_std.a(bl602_glb.o)
GLB_Set_DAC_CLK                                   /home/shoaib/bl_iot_sdk/customer_app/sdk_app_helloworld/build_out/bl602_std/libbl602_std.a(bl602_glb.o)
GLB_Set_DIG_32K_CLK                               /home/shoaib/bl_iot_sdk/customer_app/sdk_app_helloworld/build_out/bl602_std/libbl602_std.a(bl602_glb.o)
GLB_Set_DIG_512K_CLK                              /home/shoaib/bl_iot_sdk/customer_app/sdk_app_helloworld/build_out/bl602_std/libbl602_std.a(bl602_glb.o)
GLB_Set_DIG_CLK_Sel                               /home/shoaib/bl_iot_sdk/customer_app/sdk_app_helloworld/build_out/bl602_std/libbl602_std.a(bl602_glb.o)
GLB_Set_DMA_CLK                                   /home/shoaib/bl_iot_sdk/customer_app/sdk_app_helloworld/build_out/bl602_std/libbl602_std.a(bl602_glb.o)
GLB_Set_EM_Sel                                    /home/shoaib/bl_iot_sdk/customer_app/sdk_app_helloworld/build_out/bl602_std/libbl602_std.a(bl602_glb.o)
                                                  /home/shoaib/bl_iot_sdk/customer_app/sdk_app_helloworld/build_out/hal_drv/libhal_drv.a(bl_sys.o)
GLB_Set_GPIO_IntMod                               /home/shoaib/bl_iot_sdk/customer_app/sdk_app_helloworld/build_out/bl602_std/libbl602_std.a(bl602_glb.o)
                                                  /home/shoaib/bl_iot_sdk/customer_app/sdk_app_helloworld/build_out/hal_drv/libhal_drv.a(bl_gpio.o)
GLB_Set_I2C_CLK                                   /home/shoaib/bl_iot_sdk/customer_app/sdk_app_helloworld/build_out/bl602_std/libbl602_std.a(bl602_glb.o)
GLB_Set_IR_CLK                                    /home/shoaib/bl_iot_sdk/customer_app/sdk_app_helloworld/build_out/bl602_std/libbl602_std.a(bl602_glb.o)
GLB_Set_MTimer_CLK                                /home/shoaib/bl_iot_sdk/customer_app/sdk_app_helloworld/build_out/bl602_std/libbl602_std.a(bl602_glb.o)
GLB_Set_PKA_CLK_Sel                               /home/shoaib/bl_iot_sdk/customer_app/sdk_app_helloworld/build_out/bl602_std/libbl602_std.a(bl602_romapi.o)
                                                  /home/shoaib/bl_iot_sdk/customer_app/sdk_app_helloworld/build_out/bl602_std/libbl602_std.a(bl602_glb.o)
GLB_Set_SF_CLK                                    /home/shoaib/bl_iot_sdk/customer_app/sdk_app_helloworld/build_out/bl602_std/libbl602_std.a(bl602_romapi.o)
                                                  /home/shoaib/bl_iot_sdk/customer_app/sdk_app_helloworld/build_out/bl602_std/libbl602_std.a(bl602_glb.o)
GLB_Set_SPI_0_ACT_MOD_Sel                         /home/shoaib/bl_iot_sdk/customer_app/sdk_app_helloworld/build_out/bl602_std/libbl602_std.a(bl602_glb.o)
GLB_Set_SPI_CLK                                   /home/shoaib/bl_iot_sdk/customer_app/sdk_app_helloworld/build_out/bl602_std/libbl602_std.a(bl602_glb.o)
GLB_Set_SRAM_PARM                                 /home/shoaib/bl_iot_sdk/customer_app/sdk_app_helloworld/build_out/bl602_std/libbl602_std.a(bl602_glb.o)
GLB_Set_SRAM_RET                                  /home/shoaib/bl_iot_sdk/customer_app/sdk_app_helloworld/build_out/bl602_std/libbl602_std.a(bl602_glb.o)
GLB_Set_SRAM_SLP                                  /home/shoaib/bl_iot_sdk/customer_app/sdk_app_helloworld/build_out/bl602_std/libbl602_std.a(bl602_glb.o)
GLB_Set_System_CLK                                /home/shoaib/bl_iot_sdk/customer_app/sdk_app_helloworld/build_out/bl602_std/libbl602_std.a(bl602_romapi.o)
                                                  /home/shoaib/bl_iot_sdk/customer_app/sdk_app_helloworld/build_out/bl602_std/libbl602_std.a(bl602_glb.o)
                                                  /home/shoaib/bl_iot_sdk/customer_app/sdk_app_helloworld/build_out/bl602_std/libbl602_std.a(bl602_hbn.o)
GLB_Set_System_CLK_Div                            /home/shoaib/bl_iot_sdk/customer_app/sdk_app_helloworld/build_out/bl602_std/libbl602_std.a(bl602_romapi.o)
                                                  /home/shoaib/bl_iot_sdk/customer_app/sdk_app_helloworld/build_out/bl602_std/libbl602_std.a(bl602_glb.o)
GLB_Set_UART_CLK                                  /home/shoaib/bl_iot_sdk/customer_app/sdk_app_helloworld/build_out/bl602_std/libbl602_std.a(bl602_glb.o)
                                                  /home/shoaib/bl_iot_sdk/customer_app/sdk_app_helloworld/build_out/hal_drv/libhal_drv.a(bl_uart.o)
GLB_Set_WiFi_Core_CLK                             /home/shoaib/bl_iot_sdk/customer_app/sdk_app_helloworld/build_out/bl602_std/libbl602_std.a(bl602_glb.o)
GLB_Set_WiFi_Encrypt_CLK                          /home/shoaib/bl_iot_sdk/customer_app/sdk_app_helloworld/build_out/bl602_std/libbl602_std.a(bl602_glb.o)
GLB_Swap_Flash_Pin                                /home/shoaib/bl_iot_sdk/customer_app/sdk_app_helloworld/build_out/bl602_std/libbl602_std.a(bl602_romapi.o)
                                                  /home/shoaib/bl_iot_sdk/customer_app/sdk_app_helloworld/build_out/bl602_std/libbl602_std.a(bl602_glb.o)
GLB_Swap_SPI_0_MOSI_With_MISO                     /home/shoaib/bl_iot_sdk/customer_app/sdk_app_helloworld/build_out/bl602_std/libbl602_std.a(bl602_glb.o)
GLB_UART_Fun_Sel                                  /home/shoaib/bl_iot_sdk/customer_app/sdk_app_helloworld/build_out/bl602_std/libbl602_std.a(bl602_glb.o)
                                                  /home/shoaib/bl_iot_sdk/customer_app/sdk_app_helloworld/build_out/hal_drv/libhal_drv.a(bl_uart.o)
GLB_UART_Sig_Swap_Set                             /home/shoaib/bl_iot_sdk/customer_app/sdk_app_helloworld/build_out/bl602_std/libbl602_std.a(bl602_glb.o)
HBN_32K_Sel                                       /home/shoaib/bl_iot_sdk/customer_app/sdk_app_helloworld/build_out/bl602_std/libbl602_std.a(bl602_romapi.o)
                                                  /home/shoaib/bl_iot_sdk/customer_app/sdk_app_helloworld/build_out/bl602_std/libbl602_std.a(bl602_hbn.o)
                                                  /home/shoaib/bl_iot_sdk/customer_app/sdk_app_helloworld/build_out/hal_drv/libhal_drv.a(bl_rtc.o)
HBN_Aon_Pad_IeSmt_Cfg                             /home/shoaib/bl_iot_sdk/customer_app/sdk_app_helloworld/build_out/bl602_std/libbl602_std.a(bl602_hbn.o)
                                                  /home/shoaib/bl_iot_sdk/customer_app/sdk_app_helloworld/build_out/hal_drv/libhal_drv.a(bl_sys.o)
HBN_App_Reset                                     /home/shoaib/bl_iot_sdk/customer_app/sdk_app_helloworld/build_out/bl602_std/libbl602_std.a(bl602_hbn.o)
HBN_Clear_IRQ                                     /home/shoaib/bl_iot_sdk/customer_app/sdk_app_helloworld/build_out/bl602_std/libbl602_std.a(bl602_hbn.o)
HBN_Clear_RTC_Counter                             /home/shoaib/bl_iot_sdk/customer_app/sdk_app_helloworld/build_out/bl602_std/libbl602_std.a(bl602_hbn.o)
                                                  /home/shoaib/bl_iot_sdk/customer_app/sdk_app_helloworld/build_out/hal_drv/libhal_drv.a(bl_rtc.o)
HBN_Clear_RTC_INT                                 /home/shoaib/bl_iot_sdk/customer_app/sdk_app_helloworld/build_out/bl602_std/libbl602_std.a(bl602_hbn.o)
HBN_Disable                                       /home/shoaib/bl_iot_sdk/customer_app/sdk_app_helloworld/build_out/bl602_std/libbl602_std.a(bl602_hbn.o)
HBN_Disable_AComp0_IRQ                            /home/shoaib/bl_iot_sdk/customer_app/sdk_app_helloworld/build_out/bl602_std/libbl602_std.a(bl602_hbn.o)
HBN_Disable_AComp1_IRQ                            /home/shoaib/bl_iot_sdk/customer_app/sdk_app_helloworld/build_out/bl602_std/libbl602_std.a(bl602_hbn.o)
HBN_Disable_BOR_IRQ                               /home/shoaib/bl_iot_sdk/customer_app/sdk_app_helloworld/build_out/bl602_std/libbl602_std.a(bl602_hbn.o)
HBN_Enable                                        /home/shoaib/bl_iot_sdk/customer_app/sdk_app_helloworld/build_out/bl602_std/libbl602_std.a(bl602_romapi.o)
                                                  /home/shoaib/bl_iot_sdk/customer_app/sdk_app_helloworld/build_out/bl602_std/libbl602_std.a(bl602_hbn.o)
HBN_Enable_AComp0_IRQ                             /home/shoaib/bl_iot_sdk/customer_app/sdk_app_helloworld/build_out/bl602_std/libbl602_std.a(bl602_hbn.o)
HBN_Enable_AComp1_IRQ                             /home/shoaib/bl_iot_sdk/customer_app/sdk_app_helloworld/build_out/bl602_std/libbl602_std.a(bl602_hbn.o)
HBN_Enable_BOR_IRQ                                /home/shoaib/bl_iot_sdk/customer_app/sdk_app_helloworld/build_out/bl602_std/libbl602_std.a(bl602_hbn.o)
HBN_Enable_RTC_Counter                            /home/shoaib/bl_iot_sdk/customer_app/sdk_app_helloworld/build_out/bl602_std/libbl602_std.a(bl602_hbn.o)
                                                  /home/shoaib/bl_iot_sdk/customer_app/sdk_app_helloworld/build_out/hal_drv/libhal_drv.a(bl_rtc.o)
HBN_GPIO7_Dbg_Pull_Cfg                            /home/shoaib/bl_iot_sdk/customer_app/sdk_app_helloworld/build_out/bl602_std/libbl602_std.a(bl602_romapi.o)
                                                  /home/shoaib/bl_iot_sdk/customer_app/sdk_app_helloworld/build_out/bl602_std/libbl602_std.a(bl602_hbn.o)
HBN_GPIO_INT_Disable                              /home/shoaib/bl_iot_sdk/customer_app/sdk_app_helloworld/build_out/bl602_std/libbl602_std.a(bl602_hbn.o)
HBN_GPIO_INT_Enable                               /home/shoaib/bl_iot_sdk/customer_app/sdk_app_helloworld/build_out/bl602_std/libbl602_std.a(bl602_hbn.o)
HBN_Get_BOR_OUT_State                             /home/shoaib/bl_iot_sdk/customer_app/sdk_app_helloworld/build_out/bl602_std/libbl602_std.a(bl602_hbn.o)
HBN_Get_INT_State                                 /home/shoaib/bl_iot_sdk/customer_app/sdk_app_helloworld/build_out/bl602_std/libbl602_std.a(bl602_hbn.o)
HBN_Get_PIR_Interval                              /home/shoaib/bl_iot_sdk/customer_app/sdk_app_helloworld/build_out/bl602_std/libbl602_std.a(bl602_hbn.o)
HBN_Get_PIR_Threshold                             /home/shoaib/bl_iot_sdk/customer_app/sdk_app_helloworld/build_out/bl602_std/libbl602_std.a(bl602_hbn.o)
HBN_Get_Pin_Wakeup_Mode                           /home/shoaib/bl_iot_sdk/customer_app/sdk_app_helloworld/build_out/bl602_std/libbl602_std.a(bl602_hbn.o)
HBN_Get_RTC_Timer_Val                             /home/shoaib/bl_iot_sdk/customer_app/sdk_app_helloworld/build_out/bl602_std/libbl602_std.a(bl602_hbn.o)
                                                  /home/shoaib/bl_iot_sdk/customer_app/sdk_app_helloworld/build_out/hal_drv/libhal_drv.a(bl_rtc.o)
HBN_Get_Status_Flag                               /home/shoaib/bl_iot_sdk/customer_app/sdk_app_helloworld/build_out/bl602_std/libbl602_std.a(bl602_hbn.o)
HBN_Get_Wakeup_Addr                               /home/shoaib/bl_iot_sdk/customer_app/sdk_app_helloworld/build_out/bl602_std/libbl602_std.a(bl602_hbn.o)
HBN_Hw_Pu_Pd_Cfg                                  /home/shoaib/bl_iot_sdk/customer_app/sdk_app_helloworld/build_out/bl602_std/libbl602_std.a(bl602_romapi.o)
                                                  /home/shoaib/bl_iot_sdk/customer_app/sdk_app_helloworld/build_out/bl602_std/libbl602_std.a(bl602_hbn.o)
HBN_Mode_Enter                                    /home/shoaib/bl_iot_sdk/customer_app/sdk_app_helloworld/build_out/bl602_std/libbl602_std.a(bl602_romapi.o)
                                                  /home/shoaib/bl_iot_sdk/customer_app/sdk_app_helloworld/build_out/bl602_std/libbl602_std.a(bl602_hbn.o)
HBN_Out0_Callback_Install                         /home/shoaib/bl_iot_sdk/customer_app/sdk_app_helloworld/build_out/bl602_std/libbl602_std.a(bl602_hbn.o)
HBN_Out1_Callback_Install                         /home/shoaib/bl_iot_sdk/customer_app/sdk_app_helloworld/build_out/bl602_std/libbl602_std.a(bl602_hbn.o)
HBN_PIR_Disable                                   /home/shoaib/bl_iot_sdk/customer_app/sdk_app_helloworld/build_out/bl602_std/libbl602_std.a(bl602_hbn.o)
HBN_PIR_Enable                                    /home/shoaib/bl_iot_sdk/customer_app/sdk_app_helloworld/build_out/bl602_std/libbl602_std.a(bl602_hbn.o)
HBN_PIR_HPF_Sel                                   /home/shoaib/bl_iot_sdk/customer_app/sdk_app_helloworld/build_out/bl602_std/libbl602_std.a(bl602_hbn.o)
HBN_PIR_INT_Config                                /home/shoaib/bl_iot_sdk/customer_app/sdk_app_helloworld/build_out/bl602_std/libbl602_std.a(bl602_hbn.o)
HBN_PIR_LPF_Sel                                   /home/shoaib/bl_iot_sdk/customer_app/sdk_app_helloworld/build_out/bl602_std/libbl602_std.a(bl602_hbn.o)
HBN_Pin_WakeUp_Mask                               /home/shoaib/bl_iot_sdk/customer_app/sdk_app_helloworld/build_out/bl602_std/libbl602_std.a(bl602_romapi.o)
                                                  /home/shoaib/bl_iot_sdk/customer_app/sdk_app_helloworld/build_out/bl602_std/libbl602_std.a(bl602_hbn.o)
HBN_Power_Down_Flash                              /home/shoaib/bl_iot_sdk/customer_app/sdk_app_helloworld/build_out/bl602_std/libbl602_std.a(bl602_romapi.o)
                                                  /home/shoaib/bl_iot_sdk/customer_app/sdk_app_helloworld/build_out/bl602_std/libbl602_std.a(bl602_hbn.o)
HBN_Power_Off_RC32K                               /home/shoaib/bl_iot_sdk/customer_app/sdk_app_helloworld/build_out/bl602_std/libbl602_std.a(bl602_romapi.o)
                                                  /home/shoaib/bl_iot_sdk/customer_app/sdk_app_helloworld/build_out/bl602_std/libbl602_std.a(bl602_hbn.o)
HBN_Power_Off_Xtal_32K                            /home/shoaib/bl_iot_sdk/customer_app/sdk_app_helloworld/build_out/bl602_std/libbl602_std.a(bl602_romapi.o)
                                                  /home/shoaib/bl_iot_sdk/customer_app/sdk_app_helloworld/build_out/bl602_std/libbl602_std.a(bl602_hbn.o)
HBN_Power_On_RC32K                                /home/shoaib/bl_iot_sdk/customer_app/sdk_app_helloworld/build_out/bl602_std/libbl602_std.a(bl602_romapi.o)
                                                  /home/shoaib/bl_iot_sdk/customer_app/sdk_app_helloworld/build_out/bl602_std/libbl602_std.a(bl602_hbn.o)
HBN_Power_On_Xtal_32K                             /home/shoaib/bl_iot_sdk/customer_app/sdk_app_helloworld/build_out/bl602_std/libbl602_std.a(bl602_romapi.o)
                                                  /home/shoaib/bl_iot_sdk/customer_app/sdk_app_helloworld/build_out/bl602_std/libbl602_std.a(bl602_hbn.o)
HBN_Reset                                         /home/shoaib/bl_iot_sdk/customer_app/sdk_app_helloworld/build_out/bl602_std/libbl602_std.a(bl602_romapi.o)
                                                  /home/shoaib/bl_iot_sdk/customer_app/sdk_app_helloworld/build_out/bl602_std/libbl602_std.a(bl602_hbn.o)
HBN_Set_BOR_Cfg                                   /home/shoaib/bl_iot_sdk/customer_app/sdk_app_helloworld/build_out/bl602_std/libbl602_std.a(bl602_hbn.o)
HBN_Set_BOR_Config                                /home/shoaib/bl_iot_sdk/customer_app/sdk_app_helloworld/build_out/bl602_std/libbl602_std.a(bl602_hbn.o)
HBN_Set_Embedded_Flash_Pullup                     /home/shoaib/bl_iot_sdk/customer_app/sdk_app_helloworld/build_out/bl602_std/libbl602_std.a(bl602_romapi.o)
                                                  /home/shoaib/bl_iot_sdk/customer_app/sdk_app_helloworld/build_out/bl602_std/libbl602_std.a(bl602_hbn.o)
HBN_Set_HRAM_Ret                                  /home/shoaib/bl_iot_sdk/customer_app/sdk_app_helloworld/build_out/bl602_std/libbl602_std.a(bl602_hbn.o)
HBN_Set_HRAM_slp                                  /home/shoaib/bl_iot_sdk/customer_app/sdk_app_helloworld/build_out/bl602_std/libbl602_std.a(bl602_hbn.o)
HBN_Set_Ldo11_All_Vout                            /home/shoaib/bl_iot_sdk/customer_app/sdk_app_helloworld/build_out/bl602_std/libbl602_std.a(bl602_hbn.o)
HBN_Set_Ldo11_Aon_Vout                            /home/shoaib/bl_iot_sdk/customer_app/sdk_app_helloworld/build_out/bl602_std/libbl602_std.a(bl602_romapi.o)
                                                  /home/shoaib/bl_iot_sdk/customer_app/sdk_app_helloworld/build_out/bl602_std/libbl602_std.a(bl602_hbn.o)
HBN_Set_Ldo11_Rt_Vout                             /home/shoaib/bl_iot_sdk/customer_app/sdk_app_helloworld/build_out/bl602_std/libbl602_std.a(bl602_romapi.o)
                                                  /home/shoaib/bl_iot_sdk/customer_app/sdk_app_helloworld/build_out/bl602_std/libbl602_std.a(bl602_hbn.o)
HBN_Set_Ldo11_Soc_Vout                            /home/shoaib/bl_iot_sdk/customer_app/sdk_app_helloworld/build_out/bl602_std/libbl602_std.a(bl602_romapi.o)
                                                  /home/shoaib/bl_iot_sdk/customer_app/sdk_app_helloworld/build_out/bl602_std/libbl602_std.a(bl602_hbn.o)
HBN_Set_PIR_Interval                              /home/shoaib/bl_iot_sdk/customer_app/sdk_app_helloworld/build_out/bl602_std/libbl602_std.a(bl602_hbn.o)
HBN_Set_PIR_Threshold                             /home/shoaib/bl_iot_sdk/customer_app/sdk_app_helloworld/build_out/bl602_std/libbl602_std.a(bl602_hbn.o)
HBN_Set_ROOT_CLK_Sel                              /home/shoaib/bl_iot_sdk/customer_app/sdk_app_helloworld/build_out/bl602_std/libbl602_std.a(bl602_romapi.o)
                                                  /home/shoaib/bl_iot_sdk/customer_app/sdk_app_helloworld/build_out/bl602_std/libbl602_std.a(bl602_hbn.o)
                                                  /home/shoaib/bl_iot_sdk/customer_app/sdk_app_helloworld/build_out/bl602_std/libbl602_std.a(bl602_glb.o)
HBN_Set_RTC_Timer                                 /home/shoaib/bl_iot_sdk/customer_app/sdk_app_helloworld/build_out/bl602_std/libbl602_std.a(bl602_hbn.o)
HBN_Set_Status_Flag                               /home/shoaib/bl_iot_sdk/customer_app/sdk_app_helloworld/build_out/bl602_std/libbl602_std.a(bl602_hbn.o)
HBN_Set_UART_CLK_Sel                              /home/shoaib/bl_iot_sdk/customer_app/sdk_app_helloworld/build_out/bl602_std/libbl602_std.a(bl602_hbn.o)
                                                  /home/shoaib/bl_iot_sdk/customer_app/sdk_app_helloworld/build_out/bl602_std/libbl602_std.a(bl602_glb.o)
HBN_Set_Wakeup_Addr                               /home/shoaib/bl_iot_sdk/customer_app/sdk_app_helloworld/build_out/bl602_std/libbl602_std.a(bl602_hbn.o)
HBN_Set_XCLK_CLK_Sel                              /home/shoaib/bl_iot_sdk/customer_app/sdk_app_helloworld/build_out/bl602_std/libbl602_std.a(bl602_hbn.o)
HBN_Trim_RC32K                                    /home/shoaib/bl_iot_sdk/customer_app/sdk_app_helloworld/build_out/bl602_std/libbl602_std.a(bl602_romapi.o)
                                                  /home/shoaib/bl_iot_sdk/customer_app/sdk_app_helloworld/build_out/bl602_std/libbl602_std.a(bl602_hbn.o)
L1C_BMX_Addr_Monitor_Disable                      /home/shoaib/bl_iot_sdk/customer_app/sdk_app_helloworld/build_out/bl602_std/libbl602_std.a(bl602_l1c.o)
L1C_BMX_Addr_Monitor_Enable                       /home/shoaib/bl_iot_sdk/customer_app/sdk_app_helloworld/build_out/bl602_std/libbl602_std.a(bl602_l1c.o)
L1C_BMX_BusErrResponse_Disable                    /home/shoaib/bl_iot_sdk/customer_app/sdk_app_helloworld/build_out/bl602_std/libbl602_std.a(bl602_l1c.o)
L1C_BMX_BusErrResponse_Enable                     /home/shoaib/bl_iot_sdk/customer_app/sdk_app_helloworld/build_out/bl602_std/libbl602_std.a(bl602_l1c.o)
L1C_BMX_ERR_INT_Callback_Install                  /home/shoaib/bl_iot_sdk/customer_app/sdk_app_helloworld/build_out/bl602_std/libbl602_std.a(bl602_l1c.o)
L1C_BMX_Get_Err_Addr                              /home/shoaib/bl_iot_sdk/customer_app/sdk_app_helloworld/build_out/bl602_std/libbl602_std.a(bl602_l1c.o)
L1C_BMX_Get_Status                                /home/shoaib/bl_iot_sdk/customer_app/sdk_app_helloworld/build_out/bl602_std/libbl602_std.a(bl602_l1c.o)
L1C_BMX_Init                                      /home/shoaib/bl_iot_sdk/customer_app/sdk_app_helloworld/build_out/bl602_std/libbl602_std.a(bl602_l1c.o)
L1C_BMX_TIMEOUT_INT_Callback_Install              /home/shoaib/bl_iot_sdk/customer_app/sdk_app_helloworld/build_out/bl602_std/libbl602_std.a(bl602_l1c.o)
L1C_IROM_2T_Access_Set                            /home/shoaib/bl_iot_sdk/customer_app/sdk_app_helloworld/build_out/bl602_std/libbl602_std.a(bl602_romapi.o)
                                                  /home/shoaib/bl_iot_sdk/customer_app/sdk_app_helloworld/build_out/bl602_std/libbl602_std.a(bl602_l1c.o)
                                                  /home/shoaib/bl_iot_sdk/customer_app/sdk_app_helloworld/build_out/bl602_std/libbl602_std.a(bl602_glb.o)
L1C_Set_Way_Disable                               /home/shoaib/bl_iot_sdk/customer_app/sdk_app_helloworld/build_out/bl602_std/libbl602_std.a(bl602_romapi.o)
                                                  /home/shoaib/bl_iot_sdk/customer_app/sdk_app_helloworld/build_out/bl602_std/libbl602_std.a(bl602_l1c.o)
L1C_Set_Wrap                                      /home/shoaib/bl_iot_sdk/customer_app/sdk_app_helloworld/build_out/bl602_std/libbl602_std.a(bl602_romapi.o)
                                                  /home/shoaib/bl_iot_sdk/customer_app/sdk_app_helloworld/build_out/bl602_std/libbl602_std.a(bl602_l1c.o)
PDS_Default_Level_Config                          /home/shoaib/bl_iot_sdk/customer_app/sdk_app_helloworld/build_out/bl602_std/libbl602_std.a(bl602_romapi.o)
                                                  /home/shoaib/bl_iot_sdk/customer_app/sdk_app_helloworld/build_out/bl602_std/libbl602_std.a(bl602_pds.o)
PDS_Disable_PLL_All_Clks                          /home/shoaib/bl_iot_sdk/customer_app/sdk_app_helloworld/build_out/bl602_std/libbl602_std.a(bl602_romapi.o)
                                                  /home/shoaib/bl_iot_sdk/customer_app/sdk_app_helloworld/build_out/bl602_std/libbl602_std.a(bl602_pds.o)
PDS_Disable_PLL_Clk                               /home/shoaib/bl_iot_sdk/customer_app/sdk_app_helloworld/build_out/bl602_std/libbl602_std.a(bl602_romapi.o)
                                                  /home/shoaib/bl_iot_sdk/customer_app/sdk_app_helloworld/build_out/bl602_std/libbl602_std.a(bl602_pds.o)
PDS_Enable                                        /home/shoaib/bl_iot_sdk/customer_app/sdk_app_helloworld/build_out/bl602_std/libbl602_std.a(bl602_pds.o)
PDS_Enable_PLL_All_Clks                           /home/shoaib/bl_iot_sdk/customer_app/sdk_app_helloworld/build_out/bl602_std/libbl602_std.a(bl602_romapi.o)
                                                  /home/shoaib/bl_iot_sdk/customer_app/sdk_app_helloworld/build_out/bl602_std/libbl602_std.a(bl602_pds.o)
                                                  /home/shoaib/bl_iot_sdk/customer_app/sdk_app_helloworld/build_out/bl602_std/libbl602_std.a(bl602_glb.o)
PDS_Enable_PLL_Clk                                /home/shoaib/bl_iot_sdk/customer_app/sdk_app_helloworld/build_out/bl602_std/libbl602_std.a(bl602_romapi.o)
                                                  /home/shoaib/bl_iot_sdk/customer_app/sdk_app_helloworld/build_out/bl602_std/libbl602_std.a(bl602_pds.o)
                                                  /home/shoaib/bl_iot_sdk/customer_app/sdk_app_helloworld/build_out/bl602_std/libbl602_std.a(bl602_glb.o)
PDS_Force_Config                                  /home/shoaib/bl_iot_sdk/customer_app/sdk_app_helloworld/build_out/bl602_std/libbl602_std.a(bl602_romapi.o)
                                                  /home/shoaib/bl_iot_sdk/customer_app/sdk_app_helloworld/build_out/bl602_std/libbl602_std.a(bl602_pds.o)
PDS_Get_IntStatus                                 /home/shoaib/bl_iot_sdk/customer_app/sdk_app_helloworld/build_out/bl602_std/libbl602_std.a(bl602_pds.o)
PDS_Get_PdsPllStstus                              /home/shoaib/bl_iot_sdk/customer_app/sdk_app_helloworld/build_out/bl602_std/libbl602_std.a(bl602_pds.o)
PDS_Get_PdsRfStstus                               /home/shoaib/bl_iot_sdk/customer_app/sdk_app_helloworld/build_out/bl602_std/libbl602_std.a(bl602_pds.o)
PDS_Get_PdsStstus                                 /home/shoaib/bl_iot_sdk/customer_app/sdk_app_helloworld/build_out/bl602_std/libbl602_std.a(bl602_pds.o)
PDS_IntClear                                      /home/shoaib/bl_iot_sdk/customer_app/sdk_app_helloworld/build_out/bl602_std/libbl602_std.a(bl602_pds.o)
PDS_IntMask                                       /home/shoaib/bl_iot_sdk/customer_app/sdk_app_helloworld/build_out/bl602_std/libbl602_std.a(bl602_pds.o)
PDS_Int_Callback_Install                          /home/shoaib/bl_iot_sdk/customer_app/sdk_app_helloworld/build_out/bl602_std/libbl602_std.a(bl602_pds.o)
PDS_Power_Off_PLL                                 /home/shoaib/bl_iot_sdk/customer_app/sdk_app_helloworld/build_out/bl602_std/libbl602_std.a(bl602_romapi.o)
                                                  /home/shoaib/bl_iot_sdk/customer_app/sdk_app_helloworld/build_out/bl602_std/libbl602_std.a(bl602_pds.o)
PDS_Power_On_PLL                                  /home/shoaib/bl_iot_sdk/customer_app/sdk_app_helloworld/build_out/bl602_std/libbl602_std.a(bl602_romapi.o)
                                                  /home/shoaib/bl_iot_sdk/customer_app/sdk_app_helloworld/build_out/bl602_std/libbl602_std.a(bl602_pds.o)
                                                  /home/shoaib/bl_iot_sdk/customer_app/sdk_app_helloworld/build_out/bl602_std/libbl602_std.a(bl602_glb.o)
PDS_RAM_Config                                    /home/shoaib/bl_iot_sdk/customer_app/sdk_app_helloworld/build_out/bl602_std/libbl602_std.a(bl602_romapi.o)
                                                  /home/shoaib/bl_iot_sdk/customer_app/sdk_app_helloworld/build_out/bl602_std/libbl602_std.a(bl602_pds.o)
PDS_Reset                                         /home/shoaib/bl_iot_sdk/customer_app/sdk_app_helloworld/build_out/bl602_std/libbl602_std.a(bl602_romapi.o)
                                                  /home/shoaib/bl_iot_sdk/customer_app/sdk_app_helloworld/build_out/bl602_std/libbl602_std.a(bl602_pds.o)
PDS_Select_RC32M_As_PLL_Ref                       /home/shoaib/bl_iot_sdk/customer_app/sdk_app_helloworld/build_out/bl602_std/libbl602_std.a(bl602_romapi.o)
                                                  /home/shoaib/bl_iot_sdk/customer_app/sdk_app_helloworld/build_out/bl602_std/libbl602_std.a(bl602_pds.o)
PDS_Select_XTAL_As_PLL_Ref                        /home/shoaib/bl_iot_sdk/customer_app/sdk_app_helloworld/build_out/bl602_std/libbl602_std.a(bl602_romapi.o)
                                                  /home/shoaib/bl_iot_sdk/customer_app/sdk_app_helloworld/build_out/bl602_std/libbl602_std.a(bl602_pds.o)
PDS_Trim_RC32M                                    /home/shoaib/bl_iot_sdk/customer_app/sdk_app_helloworld/build_out/bl602_std/libbl602_std.a(bl602_romapi.o)
                                                  /home/shoaib/bl_iot_sdk/customer_app/sdk_app_helloworld/build_out/bl602_std/libbl602_std.a(bl602_pds.o)
PtTable_Get_Active_Entries                        /home/shoaib/bl_iot_sdk/customer_app/sdk_app_helloworld/build_out/hal_drv/libhal_drv.a(bl_boot2.o)
                                                  /home/shoaib/bl_iot_sdk/customer_app/sdk_app_helloworld/build_out/hal_drv/libhal_drv.a(hal_boot2.o)
PtTable_Set_Flash_Operation                       /home/shoaib/bl_iot_sdk/customer_app/sdk_app_helloworld/build_out/hal_drv/libhal_drv.a(hal_boot2.o)
PtTable_Update_Entry                              /home/shoaib/bl_iot_sdk/customer_app/sdk_app_helloworld/build_out/hal_drv/libhal_drv.a(bl_boot2.o)
                                                  /home/shoaib/bl_iot_sdk/customer_app/sdk_app_helloworld/build_out/hal_drv/libhal_drv.a(hal_boot2.o)
SEC_Eng_Turn_Off_Sec_Ring                         /home/shoaib/bl_iot_sdk/customer_app/sdk_app_helloworld/build_out/bl602_std/libbl602_std.a(bl602_romapi.o)
SEC_Eng_Turn_On_Sec_Ring                          /home/shoaib/bl_iot_sdk/customer_app/sdk_app_helloworld/build_out/bl602_std/libbl602_std.a(bl602_romapi.o)
SF_Cfg_Deinit_Ext_Flash_Gpio                      /home/shoaib/bl_iot_sdk/customer_app/sdk_app_helloworld/build_out/bl602_std/libbl602_std.a(bl602_romapi.o)
SF_Cfg_Flash_Identify                             /home/shoaib/bl_iot_sdk/customer_app/sdk_app_helloworld/build_out/bl602_std/libbl602_std.a(bl602_romapi.o)
SF_Cfg_Get_Flash_Cfg_Need_Lock                    /home/shoaib/bl_iot_sdk/customer_app/sdk_app_helloworld/build_out/bl602_std/libbl602_std.a(bl602_romapi.o)
SF_Cfg_Init_Ext_Flash_Gpio                        /home/shoaib/bl_iot_sdk/customer_app/sdk_app_helloworld/build_out/bl602_std/libbl602_std.a(bl602_romapi.o)
SF_Cfg_Init_Flash_Gpio                            /home/shoaib/bl_iot_sdk/customer_app/sdk_app_helloworld/build_out/bl602_std/libbl602_std.a(bl602_romapi.o)
SF_Cfg_Init_Internal_Flash_Gpio                   /home/shoaib/bl_iot_sdk/customer_app/sdk_app_helloworld/build_out/bl602_std/libbl602_std.a(bl602_romapi.o)
SF_Cfg_Restore_GPIO17_Fun                         /home/shoaib/bl_iot_sdk/customer_app/sdk_app_helloworld/build_out/bl602_std/libbl602_std.a(bl602_romapi.o)
SF_Ctrl_AES_Disable                               /home/shoaib/bl_iot_sdk/customer_app/sdk_app_helloworld/build_out/bl602_std/libbl602_std.a(bl602_romapi.o)
SF_Ctrl_AES_Enable                                /home/shoaib/bl_iot_sdk/customer_app/sdk_app_helloworld/build_out/bl602_std/libbl602_std.a(bl602_romapi.o)
SF_Ctrl_AES_Enable_BE                             /home/shoaib/bl_iot_sdk/customer_app/sdk_app_helloworld/build_out/bl602_std/libbl602_std.a(bl602_romapi.o)
SF_Ctrl_AES_Enable_LE                             /home/shoaib/bl_iot_sdk/customer_app/sdk_app_helloworld/build_out/bl602_std/libbl602_std.a(bl602_romapi.o)
SF_Ctrl_AES_Set_IV                                /home/shoaib/bl_iot_sdk/customer_app/sdk_app_helloworld/build_out/bl602_std/libbl602_std.a(bl602_romapi.o)
SF_Ctrl_AES_Set_IV_BE                             /home/shoaib/bl_iot_sdk/customer_app/sdk_app_helloworld/build_out/bl602_std/libbl602_std.a(bl602_romapi.o)
SF_Ctrl_AES_Set_Key                               /home/shoaib/bl_iot_sdk/customer_app/sdk_app_helloworld/build_out/bl602_std/libbl602_std.a(bl602_romapi.o)
SF_Ctrl_AES_Set_Key_BE                            /home/shoaib/bl_iot_sdk/customer_app/sdk_app_helloworld/build_out/bl602_std/libbl602_std.a(bl602_romapi.o)
SF_Ctrl_AES_Set_Region                            /home/shoaib/bl_iot_sdk/customer_app/sdk_app_helloworld/build_out/bl602_std/libbl602_std.a(bl602_romapi.o)
SF_Ctrl_Disable                                   /home/shoaib/bl_iot_sdk/customer_app/sdk_app_helloworld/build_out/bl602_std/libbl602_std.a(bl602_romapi.o)
SF_Ctrl_Enable                                    /home/shoaib/bl_iot_sdk/customer_app/sdk_app_helloworld/build_out/bl602_std/libbl602_std.a(bl602_romapi.o)
                                                  /home/shoaib/bl_iot_sdk/customer_app/sdk_app_helloworld/build_out/bl602_std/libbl602_std.a(bl602_glb.o)
SF_Ctrl_GetBusyState                              /home/shoaib/bl_iot_sdk/customer_app/sdk_app_helloworld/build_out/bl602_std/libbl602_std.a(bl602_romapi.o)
SF_Ctrl_Get_Clock_Delay                           /home/shoaib/bl_iot_sdk/customer_app/sdk_app_helloworld/build_out/bl602_std/libbl602_std.a(bl602_romapi.o)
SF_Ctrl_Get_Flash_Image_Offset                    /home/shoaib/bl_iot_sdk/customer_app/sdk_app_helloworld/build_out/bl602_std/libbl602_std.a(bl602_romapi.o)
SF_Ctrl_Icache2_Set                               /home/shoaib/bl_iot_sdk/customer_app/sdk_app_helloworld/build_out/bl602_std/libbl602_std.a(bl602_romapi.o)
SF_Ctrl_Icache_Set                                /home/shoaib/bl_iot_sdk/customer_app/sdk_app_helloworld/build_out/bl602_std/libbl602_std.a(bl602_romapi.o)
SF_Ctrl_Is_AES_Enable                             /home/shoaib/bl_iot_sdk/customer_app/sdk_app_helloworld/build_out/bl602_std/libbl602_std.a(bl602_romapi.o)
SF_Ctrl_Select_Clock                              /home/shoaib/bl_iot_sdk/customer_app/sdk_app_helloworld/build_out/bl602_std/libbl602_std.a(bl602_romapi.o)
SF_Ctrl_Select_Pad                                /home/shoaib/bl_iot_sdk/customer_app/sdk_app_helloworld/build_out/bl602_std/libbl602_std.a(bl602_romapi.o)
SF_Ctrl_SendCmd                                   /home/shoaib/bl_iot_sdk/customer_app/sdk_app_helloworld/build_out/bl602_std/libbl602_std.a(bl602_romapi.o)
SF_Ctrl_Set_Clock_Delay                           /home/shoaib/bl_iot_sdk/customer_app/sdk_app_helloworld/build_out/bl602_std/libbl602_std.a(bl602_romapi.o)
SF_Ctrl_Set_Flash_Image_Offset                    /home/shoaib/bl_iot_sdk/customer_app/sdk_app_helloworld/build_out/bl602_std/libbl602_std.a(bl602_romapi.o)
SF_Ctrl_Set_Owner                                 /home/shoaib/bl_iot_sdk/customer_app/sdk_app_helloworld/build_out/bl602_std/libbl602_std.a(bl602_romapi.o)
                                                  /home/shoaib/bl_iot_sdk/customer_app/sdk_app_helloworld/build_out/bl602_std/libbl602_std.a(bl602_hbn.o)
SFlash_Blk32_Erase                                /home/shoaib/bl_iot_sdk/customer_app/sdk_app_helloworld/build_out/bl602_std/libbl602_std.a(bl602_romapi.o)
SFlash_Blk64_Erase                                /home/shoaib/bl_iot_sdk/customer_app/sdk_app_helloworld/build_out/bl602_std/libbl602_std.a(bl602_romapi.o)
SFlash_Busy                                       /home/shoaib/bl_iot_sdk/customer_app/sdk_app_helloworld/build_out/bl602_std/libbl602_std.a(bl602_romapi.o)
SFlash_Cache_Enable_Set                           /home/shoaib/bl_iot_sdk/customer_app/sdk_app_helloworld/build_out/bl602_std/libbl602_std.a(bl602_romapi.o)
SFlash_Cache_Flush                                /home/shoaib/bl_iot_sdk/customer_app/sdk_app_helloworld/build_out/bl602_std/libbl602_std.a(bl602_romapi.o)
                                                  /home/shoaib/bl_iot_sdk/customer_app/sdk_app_helloworld/build_out/bl602_std/libbl602_std.a(bl602_hbn.o)
SFlash_Cache_Hit_Count_Get                        /home/shoaib/bl_iot_sdk/customer_app/sdk_app_helloworld/build_out/bl602_std/libbl602_std.a(bl602_romapi.o)
SFlash_Cache_Miss_Count_Get                       /home/shoaib/bl_iot_sdk/customer_app/sdk_app_helloworld/build_out/bl602_std/libbl602_std.a(bl602_romapi.o)
SFlash_Cache_Read_Disable                         /home/shoaib/bl_iot_sdk/customer_app/sdk_app_helloworld/build_out/bl602_std/libbl602_std.a(bl602_romapi.o)
SFlash_Cache_Read_Enable                          /home/shoaib/bl_iot_sdk/customer_app/sdk_app_helloworld/build_out/bl602_std/libbl602_std.a(bl602_romapi.o)
SFlash_Chip_Erase                                 /home/shoaib/bl_iot_sdk/customer_app/sdk_app_helloworld/build_out/bl602_std/libbl602_std.a(bl602_romapi.o)
SFlash_DisableBurstWrap                           /home/shoaib/bl_iot_sdk/customer_app/sdk_app_helloworld/build_out/bl602_std/libbl602_std.a(bl602_romapi.o)
SFlash_Erase                                      /home/shoaib/bl_iot_sdk/customer_app/sdk_app_helloworld/build_out/bl602_std/libbl602_std.a(bl602_romapi.o)
SFlash_GetDeviceId                                /home/shoaib/bl_iot_sdk/customer_app/sdk_app_helloworld/build_out/bl602_std/libbl602_std.a(bl602_romapi.o)
SFlash_GetJedecId                                 /home/shoaib/bl_iot_sdk/customer_app/sdk_app_helloworld/build_out/bl602_std/libbl602_std.a(bl602_romapi.o)
SFlash_GetUniqueId                                /home/shoaib/bl_iot_sdk/customer_app/sdk_app_helloworld/build_out/bl602_std/libbl602_std.a(bl602_romapi.o)
SFlash_IDbus_Read_Enable                          /home/shoaib/bl_iot_sdk/customer_app/sdk_app_helloworld/build_out/bl602_std/libbl602_std.a(bl602_romapi.o)
SFlash_Init                                       /home/shoaib/bl_iot_sdk/customer_app/sdk_app_helloworld/build_out/bl602_std/libbl602_std.a(bl602_romapi.o)
SFlash_Powerdown                                  /home/shoaib/bl_iot_sdk/customer_app/sdk_app_helloworld/build_out/bl602_std/libbl602_std.a(bl602_romapi.o)
                                                  /home/shoaib/bl_iot_sdk/customer_app/sdk_app_helloworld/build_out/bl602_std/libbl602_std.a(bl602_hbn.o)
SFlash_Program                                    /home/shoaib/bl_iot_sdk/customer_app/sdk_app_helloworld/build_out/bl602_std/libbl602_std.a(bl602_romapi.o)
SFlash_Qspi_Enable                                /home/shoaib/bl_iot_sdk/customer_app/sdk_app_helloworld/build_out/bl602_std/libbl602_std.a(bl602_romapi.o)
SFlash_Read                                       /home/shoaib/bl_iot_sdk/customer_app/sdk_app_helloworld/build_out/bl602_std/libbl602_std.a(bl602_romapi.o)
SFlash_Read_Reg                                   /home/shoaib/bl_iot_sdk/customer_app/sdk_app_helloworld/build_out/bl602_std/libbl602_std.a(bl602_romapi.o)
SFlash_Read_Reg_With_Cmd                          /home/shoaib/bl_iot_sdk/customer_app/sdk_app_helloworld/build_out/bl602_std/libbl602_std.a(bl602_romapi.o)
SFlash_Releae_Powerdown                           /home/shoaib/bl_iot_sdk/customer_app/sdk_app_helloworld/build_out/bl602_std/libbl602_std.a(bl602_romapi.o)
SFlash_Reset_Continue_Read                        /home/shoaib/bl_iot_sdk/customer_app/sdk_app_helloworld/build_out/bl602_std/libbl602_std.a(bl602_romapi.o)
                                                  /home/shoaib/bl_iot_sdk/customer_app/sdk_app_helloworld/build_out/bl602_std/libbl602_std.a(bl602_hbn.o)
SFlash_Sector_Erase                               /home/shoaib/bl_iot_sdk/customer_app/sdk_app_helloworld/build_out/bl602_std/libbl602_std.a(bl602_romapi.o)
SFlash_SetBurstWrap                               /home/shoaib/bl_iot_sdk/customer_app/sdk_app_helloworld/build_out/bl602_std/libbl602_std.a(bl602_romapi.o)
SFlash_SetSPIMode                                 /home/shoaib/bl_iot_sdk/customer_app/sdk_app_helloworld/build_out/bl602_std/libbl602_std.a(bl602_romapi.o)
SFlash_Set_IDbus_Cfg                              /home/shoaib/bl_iot_sdk/customer_app/sdk_app_helloworld/build_out/bl602_std/libbl602_std.a(bl602_romapi.o)
SFlash_Software_Reset                             /home/shoaib/bl_iot_sdk/customer_app/sdk_app_helloworld/build_out/bl602_std/libbl602_std.a(bl602_romapi.o)
SFlash_Volatile_Reg_Write_Enable                  /home/shoaib/bl_iot_sdk/customer_app/sdk_app_helloworld/build_out/bl602_std/libbl602_std.a(bl602_romapi.o)
SFlash_Write_Enable                               /home/shoaib/bl_iot_sdk/customer_app/sdk_app_helloworld/build_out/bl602_std/libbl602_std.a(bl602_romapi.o)
SFlash_Write_Reg                                  /home/shoaib/bl_iot_sdk/customer_app/sdk_app_helloworld/build_out/bl602_std/libbl602_std.a(bl602_romapi.o)
SFlash_Write_Reg_With_Cmd                         /home/shoaib/bl_iot_sdk/customer_app/sdk_app_helloworld/build_out/bl602_std/libbl602_std.a(bl602_romapi.o)
System_Core_Clock_Update_From_RC32M               /home/shoaib/bl_iot_sdk/customer_app/sdk_app_helloworld/build_out/bl602_std/libbl602_std.a(bl602_romapi.o)
                                                  /home/shoaib/bl_iot_sdk/customer_app/sdk_app_helloworld/build_out/bl602_std/libbl602_std.a(bl602_glb.o)
TrapNetCounter                                    /home/shoaib/bl_iot_sdk/customer_app/sdk_app_helloworld/build_out/freertos_riscv_ram/libfreertos_riscv_ram.a(port.o)
UART0_IRQHandler                                  /home/shoaib/bl_iot_sdk/customer_app/sdk_app_helloworld/build_out/hal_drv/libhal_drv.a(bl_uart.o)
UART1_IRQHandler                                  /home/shoaib/bl_iot_sdk/customer_app/sdk_app_helloworld/build_out/hal_drv/libhal_drv.a(bl_uart.o)
UART_AutoBaudDetection                            /home/shoaib/bl_iot_sdk/customer_app/sdk_app_helloworld/build_out/bl602_std/libbl602_std.a(bl602_uart.o)
UART_ClrRtsValue                                  /home/shoaib/bl_iot_sdk/customer_app/sdk_app_helloworld/build_out/bl602_std/libbl602_std.a(bl602_uart.o)
UART_DeInit                                       /home/shoaib/bl_iot_sdk/customer_app/sdk_app_helloworld/build_out/bl602_std/libbl602_std.a(bl602_uart.o)
UART_Disable                                      /home/shoaib/bl_iot_sdk/customer_app/sdk_app_helloworld/build_out/bl602_std/libbl602_std.a(bl602_uart.o)
                                                  /home/shoaib/bl_iot_sdk/customer_app/sdk_app_helloworld/build_out/hal_drv/libhal_drv.a(bl_uart.o)
UART_Enable                                       /home/shoaib/bl_iot_sdk/customer_app/sdk_app_helloworld/build_out/bl602_std/libbl602_std.a(bl602_uart.o)
                                                  /home/shoaib/bl_iot_sdk/customer_app/sdk_app_helloworld/build_out/hal_drv/libhal_drv.a(bl_uart.o)
UART_FifoConfig                                   /home/shoaib/bl_iot_sdk/customer_app/sdk_app_helloworld/build_out/bl602_std/libbl602_std.a(bl602_uart.o)
                                                  /home/shoaib/bl_iot_sdk/customer_app/sdk_app_helloworld/build_out/hal_drv/libhal_drv.a(bl_uart.o)
UART_GetAutoBaudCount                             /home/shoaib/bl_iot_sdk/customer_app/sdk_app_helloworld/build_out/bl602_std/libbl602_std.a(bl602_uart.o)
UART_GetIntStatus                                 /home/shoaib/bl_iot_sdk/customer_app/sdk_app_helloworld/build_out/bl602_std/libbl602_std.a(bl602_uart.o)
UART_GetOverflowStatus                            /home/shoaib/bl_iot_sdk/customer_app/sdk_app_helloworld/build_out/bl602_std/libbl602_std.a(bl602_uart.o)
UART_GetRxBusBusyStatus                           /home/shoaib/bl_iot_sdk/customer_app/sdk_app_helloworld/build_out/bl602_std/libbl602_std.a(bl602_uart.o)
UART_GetRxFifoCount                               /home/shoaib/bl_iot_sdk/customer_app/sdk_app_helloworld/build_out/bl602_std/libbl602_std.a(bl602_uart.o)
                                                  /home/shoaib/bl_iot_sdk/customer_app/sdk_app_helloworld/build_out/hal_drv/libhal_drv.a(bl_uart.o)
UART_GetTxBusBusyStatus                           /home/shoaib/bl_iot_sdk/customer_app/sdk_app_helloworld/build_out/bl602_std/libbl602_std.a(bl602_uart.o)
UART_GetTxFifoCount                               /home/shoaib/bl_iot_sdk/customer_app/sdk_app_helloworld/build_out/bl602_std/libbl602_std.a(bl602_uart.o)
                                                  /home/shoaib/bl_iot_sdk/customer_app/sdk_app_helloworld/build_out/hal_drv/libhal_drv.a(bl_uart.o)
UART_Init                                         /home/shoaib/bl_iot_sdk/customer_app/sdk_app_helloworld/build_out/bl602_std/libbl602_std.a(bl602_uart.o)
                                                  /home/shoaib/bl_iot_sdk/customer_app/sdk_app_helloworld/build_out/hal_drv/libhal_drv.a(bl_uart.o)
UART_IntClear                                     /home/shoaib/bl_iot_sdk/customer_app/sdk_app_helloworld/build_out/bl602_std/libbl602_std.a(bl602_uart.o)
UART_IntMask                                      /home/shoaib/bl_iot_sdk/customer_app/sdk_app_helloworld/build_out/bl602_std/libbl602_std.a(bl602_uart.o)
                                                  /home/shoaib/bl_iot_sdk/customer_app/sdk_app_helloworld/build_out/hal_drv/libhal_drv.a(bl_uart.o)
UART_Int_Callback_Install                         /home/shoaib/bl_iot_sdk/customer_app/sdk_app_helloworld/build_out/bl602_std/libbl602_std.a(bl602_uart.o)
UART_IrConfig                                     /home/shoaib/bl_iot_sdk/customer_app/sdk_app_helloworld/build_out/bl602_std/libbl602_std.a(bl602_uart.o)
UART_ReceiveData                                  /home/shoaib/bl_iot_sdk/customer_app/sdk_app_helloworld/build_out/bl602_std/libbl602_std.a(bl602_uart.o)
UART_RxFifoClear                                  /home/shoaib/bl_iot_sdk/customer_app/sdk_app_helloworld/build_out/bl602_std/libbl602_std.a(bl602_uart.o)
UART_SendData                                     /home/shoaib/bl_iot_sdk/customer_app/sdk_app_helloworld/build_out/bl602_std/libbl602_std.a(bl602_uart.o)
UART_SendDataBlock                                /home/shoaib/bl_iot_sdk/customer_app/sdk_app_helloworld/build_out/bl602_std/libbl602_std.a(bl602_uart.o)
UART_SetBaudrate                                  /home/shoaib/bl_iot_sdk/customer_app/sdk_app_helloworld/build_out/bl602_std/libbl602_std.a(bl602_uart.o)
UART_SetDeglitchCount                             /home/shoaib/bl_iot_sdk/customer_app/sdk_app_helloworld/build_out/bl602_std/libbl602_std.a(bl602_uart.o)
UART_SetRtsValue                                  /home/shoaib/bl_iot_sdk/customer_app/sdk_app_helloworld/build_out/bl602_std/libbl602_std.a(bl602_uart.o)
UART_SetRxDataLength                              /home/shoaib/bl_iot_sdk/customer_app/sdk_app_helloworld/build_out/bl602_std/libbl602_std.a(bl602_uart.o)
UART_SetRxTimeoutValue                            /home/shoaib/bl_iot_sdk/customer_app/sdk_app_helloworld/build_out/bl602_std/libbl602_std.a(bl602_uart.o)
                                                  /home/shoaib/bl_iot_sdk/customer_app/sdk_app_helloworld/build_out/hal_drv/libhal_drv.a(bl_uart.o)
UART_SetTxDataLength                              /home/shoaib/bl_iot_sdk/customer_app/sdk_app_helloworld/build_out/bl602_std/libbl602_std.a(bl602_uart.o)
UART_TxFifoClear                                  /home/shoaib/bl_iot_sdk/customer_app/sdk_app_helloworld/build_out/bl602_std/libbl602_std.a(bl602_uart.o)
UART_TxFreeRun                                    /home/shoaib/bl_iot_sdk/customer_app/sdk_app_helloworld/build_out/bl602_std/libbl602_std.a(bl602_uart.o)
                                                  /home/shoaib/bl_iot_sdk/customer_app/sdk_app_helloworld/build_out/hal_drv/libhal_drv.a(bl_uart.o)
Update_SystemCoreClockWith_XTAL                   /home/shoaib/bl_iot_sdk/customer_app/sdk_app_helloworld/build_out/bl602_std/libbl602_std.a(bl602_romapi.o)
                                                  /home/shoaib/bl_iot_sdk/customer_app/sdk_app_helloworld/build_out/bl602_std/libbl602_std.a(bl602_glb.o)
XIP_SFlash_Erase_Need_Lock                        /home/shoaib/bl_iot_sdk/customer_app/sdk_app_helloworld/build_out/bl602_std/libbl602_std.a(bl602_romapi.o)
XIP_SFlash_Erase_With_Lock                        /home/shoaib/bl_iot_sdk/customer_app/sdk_app_helloworld/build_out/bl602_std/libbl602_std.a(bl602_romapi.o)
XIP_SFlash_GetDeviceId_Need_Lock                  /home/shoaib/bl_iot_sdk/customer_app/sdk_app_helloworld/build_out/bl602_std/libbl602_std.a(bl602_romapi.o)
XIP_SFlash_GetJedecId_Need_Lock                   /home/shoaib/bl_iot_sdk/customer_app/sdk_app_helloworld/build_out/bl602_std/libbl602_std.a(bl602_romapi.o)
XIP_SFlash_GetUniqueId_Need_Lock                  /home/shoaib/bl_iot_sdk/customer_app/sdk_app_helloworld/build_out/bl602_std/libbl602_std.a(bl602_romapi.o)
XIP_SFlash_Opt_Enter                              /home/shoaib/bl_iot_sdk/customer_app/sdk_app_helloworld/build_out/bl602_std/libbl602_std.a(bl602_romapi.o)
XIP_SFlash_Opt_Exit                               /home/shoaib/bl_iot_sdk/customer_app/sdk_app_helloworld/build_out/bl602_std/libbl602_std.a(bl602_romapi.o)
XIP_SFlash_Read_Need_Lock                         /home/shoaib/bl_iot_sdk/customer_app/sdk_app_helloworld/build_out/bl602_std/libbl602_std.a(bl602_romapi.o)
XIP_SFlash_Read_Via_Cache_Need_Lock               /home/shoaib/bl_iot_sdk/customer_app/sdk_app_helloworld/build_out/bl602_std/libbl602_std.a(bl602_romapi.o)
                                                  /home/shoaib/bl_iot_sdk/customer_app/sdk_app_helloworld/build_out/bl602_std/libbl602_std.a(bl602_hbn.o)
XIP_SFlash_Read_With_Lock                         /home/shoaib/bl_iot_sdk/customer_app/sdk_app_helloworld/build_out/bl602_std/libbl602_std.a(bl602_romapi.o)
XIP_SFlash_State_Restore                          /home/shoaib/bl_iot_sdk/customer_app/sdk_app_helloworld/build_out/bl602_std/libbl602_std.a(bl602_romapi.o)
XIP_SFlash_State_Save                             /home/shoaib/bl_iot_sdk/customer_app/sdk_app_helloworld/build_out/bl602_std/libbl602_std.a(bl602_romapi.o)
XIP_SFlash_Write_Need_Lock                        /home/shoaib/bl_iot_sdk/customer_app/sdk_app_helloworld/build_out/bl602_std/libbl602_std.a(bl602_romapi.o)
XIP_SFlash_Write_With_Lock                        /home/shoaib/bl_iot_sdk/customer_app/sdk_app_helloworld/build_out/bl602_std/libbl602_std.a(bl602_romapi.o)
__LD_CONFIG_EM_SEL                                /home/shoaib/bl_iot_sdk/customer_app/sdk_app_helloworld/build_out/hal_drv/libhal_drv.a(bl_sys.o)
__adddf3                                          /home/shoaib/bl_iot_sdk/toolchain/riscv/Linux/bin/../lib/gcc/riscv64-unknown-elf/8.3.0/rv32imf/ilp32f/libgcc.a(adddf3.o)
                                                  /home/shoaib/bl_iot_sdk/customer_app/sdk_app_helloworld/build_out/bl602/libbl602.a(debug.o)
__ashldi3                                         /home/shoaib/bl_iot_sdk/toolchain/riscv/Linux/bin/../lib/gcc/riscv64-unknown-elf/8.3.0/rv32imf/ilp32f/libgcc.a(_ashldi3.o)
                                                  /home/shoaib/bl_iot_sdk/customer_app/sdk_app_helloworld/build_out/bl602_std/libbl602_std.a(bl602_ef_ctrl.o)
__boot2_flashCfg_end                              /home/shoaib/bl_iot_sdk/customer_app/sdk_app_helloworld/build_out/bl602/libbl602.a(start.o)
__boot2_flashCfg_src                              /home/shoaib/bl_iot_sdk/customer_app/sdk_app_helloworld/build_out/hal_drv/libhal_drv.a(hal_boot2.o)
__boot2_flashCfg_start                            /home/shoaib/bl_iot_sdk/customer_app/sdk_app_helloworld/build_out/bl602/libbl602.a(start.o)
__boot2_pt_addr_end                               /home/shoaib/bl_iot_sdk/customer_app/sdk_app_helloworld/build_out/bl602/libbl602.a(start.o)
__boot2_pt_addr_src                               /home/shoaib/bl_iot_sdk/customer_app/sdk_app_helloworld/build_out/bl602/libbl602.a(start.o)
__boot2_pt_addr_start                             /home/shoaib/bl_iot_sdk/customer_app/sdk_app_helloworld/build_out/bl602/libbl602.a(start.o)
__bss_end                                         /home/shoaib/bl_iot_sdk/customer_app/sdk_app_helloworld/build_out/bl602/libbl602.a(start.o)
__bss_start                                       /home/shoaib/bl_iot_sdk/customer_app/sdk_app_helloworld/build_out/bl602/libbl602.a(start.o)
__clz_tab                                         /home/shoaib/bl_iot_sdk/toolchain/riscv/Linux/bin/../lib/gcc/riscv64-unknown-elf/8.3.0/rv32imf/ilp32f/libgcc.a(_clz.o)
                                                  /home/shoaib/bl_iot_sdk/toolchain/riscv/Linux/bin/../lib/gcc/riscv64-unknown-elf/8.3.0/rv32imf/ilp32f/libgcc.a(_umoddi3.o)
                                                  /home/shoaib/bl_iot_sdk/toolchain/riscv/Linux/bin/../lib/gcc/riscv64-unknown-elf/8.3.0/rv32imf/ilp32f/libgcc.a(_udivdi3.o)
                                                  /home/shoaib/bl_iot_sdk/toolchain/riscv/Linux/bin/../lib/gcc/riscv64-unknown-elf/8.3.0/rv32imf/ilp32f/libgcc.a(_clzsi2.o)
__clzsi2                                          /home/shoaib/bl_iot_sdk/toolchain/riscv/Linux/bin/../lib/gcc/riscv64-unknown-elf/8.3.0/rv32imf/ilp32f/libgcc.a(_clzsi2.o)
                                                  /home/shoaib/bl_iot_sdk/toolchain/riscv/Linux/bin/../lib/gcc/riscv64-unknown-elf/8.3.0/rv32imf/ilp32f/libgcc.a(subdf3.o)
                                                  /home/shoaib/bl_iot_sdk/toolchain/riscv/Linux/bin/../lib/gcc/riscv64-unknown-elf/8.3.0/rv32imf/ilp32f/libgcc.a(muldf3.o)
                                                  /home/shoaib/bl_iot_sdk/toolchain/riscv/Linux/bin/../lib/gcc/riscv64-unknown-elf/8.3.0/rv32imf/ilp32f/libgcc.a(divdf3.o)
                                                  /home/shoaib/bl_iot_sdk/toolchain/riscv/Linux/bin/../lib/gcc/riscv64-unknown-elf/8.3.0/rv32imf/ilp32f/libgcc.a(adddf3.o)
                                                  /home/shoaib/bl_iot_sdk/customer_app/sdk_app_helloworld/build_out/freertos_riscv_ram/libfreertos_riscv_ram.a(tasks.o)
__divdf3                                          /home/shoaib/bl_iot_sdk/toolchain/riscv/Linux/bin/../lib/gcc/riscv64-unknown-elf/8.3.0/rv32imf/ilp32f/libgcc.a(divdf3.o)
                                                  /home/shoaib/bl_iot_sdk/customer_app/sdk_app_helloworld/build_out/bl602/libbl602.a(debug.o)
__eqdf2                                           /home/shoaib/bl_iot_sdk/toolchain/riscv/Linux/bin/../lib/gcc/riscv64-unknown-elf/8.3.0/rv32imf/ilp32f/libgcc.a(eqdf2.o)
                                                  /home/shoaib/bl_iot_sdk/customer_app/sdk_app_helloworld/build_out/bl602/libbl602.a(debug.o)
__fixdfsi                                         /home/shoaib/bl_iot_sdk/toolchain/riscv/Linux/bin/../lib/gcc/riscv64-unknown-elf/8.3.0/rv32imf/ilp32f/libgcc.a(fixdfsi.o)
                                                  /home/shoaib/bl_iot_sdk/customer_app/sdk_app_helloworld/build_out/bl602/libbl602.a(debug.o)
__freertos_irq_stack_top                          /home/shoaib/bl_iot_sdk/customer_app/sdk_app_helloworld/build_out/freertos_riscv_ram/libfreertos_riscv_ram.a(port.o)
__gedf2                                           /home/shoaib/bl_iot_sdk/toolchain/riscv/Linux/bin/../lib/gcc/riscv64-unknown-elf/8.3.0/rv32imf/ilp32f/libgcc.a(gedf2.o)
__global_pointer$                                 /home/shoaib/bl_iot_sdk/customer_app/sdk_app_helloworld/build_out/bl602/libbl602.a(start.o)
__gtdf2                                           /home/shoaib/bl_iot_sdk/toolchain/riscv/Linux/bin/../lib/gcc/riscv64-unknown-elf/8.3.0/rv32imf/ilp32f/libgcc.a(gedf2.o)
                                                  /home/shoaib/bl_iot_sdk/customer_app/sdk_app_helloworld/build_out/bl602/libbl602.a(debug.o)
__init_array_end                                  /home/shoaib/bl_iot_sdk/customer_app/sdk_app_helloworld/build_out/bl602/libbl602.a(start.o)
__init_array_start                                /home/shoaib/bl_iot_sdk/customer_app/sdk_app_helloworld/build_out/bl602/libbl602.a(start.o)
__ledf2                                           /home/shoaib/bl_iot_sdk/toolchain/riscv/Linux/bin/../lib/gcc/riscv64-unknown-elf/8.3.0/rv32imf/ilp32f/libgcc.a(ledf2.o)
__lshrdi3                                         /home/shoaib/bl_iot_sdk/toolchain/riscv/Linux/bin/../lib/gcc/riscv64-unknown-elf/8.3.0/rv32imf/ilp32f/libgcc.a(_lshrdi3.o)
                                                  /home/shoaib/bl_iot_sdk/customer_app/sdk_app_helloworld/build_out/bl602_std/libbl602_std.a(bl602_ef_ctrl.o)
__ltdf2                                           /home/shoaib/bl_iot_sdk/toolchain/riscv/Linux/bin/../lib/gcc/riscv64-unknown-elf/8.3.0/rv32imf/ilp32f/libgcc.a(ledf2.o)
                                                  /home/shoaib/bl_iot_sdk/customer_app/sdk_app_helloworld/build_out/bl602/libbl602.a(debug.o)
__muldf3                                          /home/shoaib/bl_iot_sdk/toolchain/riscv/Linux/bin/../lib/gcc/riscv64-unknown-elf/8.3.0/rv32imf/ilp32f/libgcc.a(muldf3.o)
                                                  /home/shoaib/bl_iot_sdk/customer_app/sdk_app_helloworld/build_out/bl602/libbl602.a(debug.o)
__nedf2                                           /home/shoaib/bl_iot_sdk/toolchain/riscv/Linux/bin/../lib/gcc/riscv64-unknown-elf/8.3.0/rv32imf/ilp32f/libgcc.a(eqdf2.o)
                                                  /home/shoaib/bl_iot_sdk/customer_app/sdk_app_helloworld/build_out/bl602/libbl602.a(debug.o)
__preinit_array_end                               /home/shoaib/bl_iot_sdk/customer_app/sdk_app_helloworld/build_out/bl602/libbl602.a(start.o)
__preinit_array_start                             /home/shoaib/bl_iot_sdk/customer_app/sdk_app_helloworld/build_out/bl602/libbl602.a(start.o)
__subdf3                                          /home/shoaib/bl_iot_sdk/toolchain/riscv/Linux/bin/../lib/gcc/riscv64-unknown-elf/8.3.0/rv32imf/ilp32f/libgcc.a(subdf3.o)
                                                  /home/shoaib/bl_iot_sdk/toolchain/riscv/Linux/bin/../lib/gcc/riscv64-unknown-elf/8.3.0/../../../../riscv64-unknown-elf/lib/rv32imf/ilp32f/libm.a(lib_a-s_modf.o)
__udivdi3                                         /home/shoaib/bl_iot_sdk/toolchain/riscv/Linux/bin/../lib/gcc/riscv64-unknown-elf/8.3.0/rv32imf/ilp32f/libgcc.a(_udivdi3.o)
                                                  /home/shoaib/bl_iot_sdk/customer_app/sdk_app_helloworld/build_out/bl602/libbl602.a(debug.o)
__umoddi3                                         /home/shoaib/bl_iot_sdk/toolchain/riscv/Linux/bin/../lib/gcc/riscv64-unknown-elf/8.3.0/rv32imf/ilp32f/libgcc.a(_umoddi3.o)
                                                  /home/shoaib/bl_iot_sdk/customer_app/sdk_app_helloworld/build_out/bl602/libbl602.a(debug.o)
__wifi_bss_end                                    /home/shoaib/bl_iot_sdk/customer_app/sdk_app_helloworld/build_out/bl602/libbl602.a(start.o)
__wifi_bss_start                                  /home/shoaib/bl_iot_sdk/customer_app/sdk_app_helloworld/build_out/bl602/libbl602.a(start.o)
_data_load                                        /home/shoaib/bl_iot_sdk/customer_app/sdk_app_helloworld/build_out/bl602/libbl602.a(start.o)
_data_run                                         /home/shoaib/bl_iot_sdk/customer_app/sdk_app_helloworld/build_out/bl602/libbl602.a(start.o)
_data_run_end                                     /home/shoaib/bl_iot_sdk/customer_app/sdk_app_helloworld/build_out/bl602/libbl602.a(start.o)
_global_impure_ptr                                /home/shoaib/bl_iot_sdk/toolchain/riscv/Linux/bin/../lib/gcc/riscv64-unknown-elf/8.3.0/../../../../riscv64-unknown-elf/lib/rv32imf/ilp32f/libc.a(lib_a-impure.o)
_heap_size                                        /home/shoaib/bl_iot_sdk/customer_app/sdk_app_helloworld/build_out/sdk_app_helloworld/libsdk_app_helloworld.a(main.o)
_heap_start                                       /home/shoaib/bl_iot_sdk/customer_app/sdk_app_helloworld/build_out/sdk_app_helloworld/libsdk_app_helloworld.a(main.o)
_heap_wifi_size                                   /home/shoaib/bl_iot_sdk/customer_app/sdk_app_helloworld/build_out/sdk_app_helloworld/libsdk_app_helloworld.a(main.o)
_heap_wifi_start                                  /home/shoaib/bl_iot_sdk/customer_app/sdk_app_helloworld/build_out/sdk_app_helloworld/libsdk_app_helloworld.a(main.o)
_impure_ptr                                       /home/shoaib/bl_iot_sdk/toolchain/riscv/Linux/bin/../lib/gcc/riscv64-unknown-elf/8.3.0/../../../../riscv64-unknown-elf/lib/rv32imf/ilp32f/libc.a(lib_a-impure.o)
                                                  /home/shoaib/bl_iot_sdk/toolchain/riscv/Linux/bin/../lib/gcc/riscv64-unknown-elf/8.3.0/../../../../riscv64-unknown-elf/lib/rv32imf/ilp32f/libc.a(lib_a-rand.o)
_sp_main                                          /home/shoaib/bl_iot_sdk/customer_app/sdk_app_helloworld/build_out/bl602/libbl602.a(start.o)
backtrace_now                                     /home/shoaib/bl_iot_sdk/customer_app/sdk_app_helloworld/build_out/freertos_riscv_ram/libfreertos_riscv_ram.a(panic_c.o)
                                                  /home/shoaib/bl_iot_sdk/customer_app/sdk_app_helloworld/build_out/hal_drv/libhal_drv.a(bl_irq.o)
backtrace_riscv                                   /home/shoaib/bl_iot_sdk/customer_app/sdk_app_helloworld/build_out/freertos_riscv_ram/libfreertos_riscv_ram.a(panic_c.o)
bfl_main                                          /home/shoaib/bl_iot_sdk/customer_app/sdk_app_helloworld/build_out/sdk_app_helloworld/libsdk_app_helloworld.a(main.o)
                                                  /home/shoaib/bl_iot_sdk/customer_app/sdk_app_helloworld/build_out/bl602/libbl602.a(start.o)
bl602_start                                       /home/shoaib/bl_iot_sdk/customer_app/sdk_app_helloworld/build_out/bl602/libbl602.a(start.o)
bl_flash_config_update                            /home/shoaib/bl_iot_sdk/customer_app/sdk_app_helloworld/build_out/hal_drv/libhal_drv.a(bl_flash.o)
                                                  /home/shoaib/bl_iot_sdk/customer_app/sdk_app_helloworld/build_out/hal_drv/libhal_drv.a(hal_boot2.o)
bl_flash_erase                                    /home/shoaib/bl_iot_sdk/customer_app/sdk_app_helloworld/build_out/hal_drv/libhal_drv.a(bl_flash.o)
                                                  /home/shoaib/bl_iot_sdk/customer_app/sdk_app_helloworld/build_out/hal_drv/libhal_drv.a(bl_boot2.o)
bl_flash_get_flashCfg                             /home/shoaib/bl_iot_sdk/customer_app/sdk_app_helloworld/build_out/hal_drv/libhal_drv.a(bl_flash.o)
bl_flash_read                                     /home/shoaib/bl_iot_sdk/customer_app/sdk_app_helloworld/build_out/hal_drv/libhal_drv.a(bl_flash.o)
bl_flash_read_byxip                               /home/shoaib/bl_iot_sdk/customer_app/sdk_app_helloworld/build_out/hal_drv/libhal_drv.a(bl_flash.o)
bl_flash_write                                    /home/shoaib/bl_iot_sdk/customer_app/sdk_app_helloworld/build_out/hal_drv/libhal_drv.a(bl_flash.o)
                                                  /home/shoaib/bl_iot_sdk/customer_app/sdk_app_helloworld/build_out/hal_drv/libhal_drv.a(bl_boot2.o)
bl_gpio_enable_input                              /home/shoaib/bl_iot_sdk/customer_app/sdk_app_helloworld/build_out/hal_drv/libhal_drv.a(bl_gpio.o)
bl_gpio_enable_output                             /home/shoaib/bl_iot_sdk/customer_app/sdk_app_helloworld/build_out/hal_drv/libhal_drv.a(bl_gpio.o)
                                                  /home/shoaib/bl_iot_sdk/customer_app/sdk_app_helloworld/build_out/sdk_app_helloworld/libsdk_app_helloworld.a(led.o)
bl_gpio_input_get                                 /home/shoaib/bl_iot_sdk/customer_app/sdk_app_helloworld/build_out/hal_drv/libhal_drv.a(bl_gpio.o)
bl_gpio_input_get_value                           /home/shoaib/bl_iot_sdk/customer_app/sdk_app_helloworld/build_out/hal_drv/libhal_drv.a(bl_gpio.o)
bl_gpio_int_clear                                 /home/shoaib/bl_iot_sdk/customer_app/sdk_app_helloworld/build_out/hal_drv/libhal_drv.a(bl_gpio.o)
bl_gpio_intmask                                   /home/shoaib/bl_iot_sdk/customer_app/sdk_app_helloworld/build_out/hal_drv/libhal_drv.a(bl_gpio.o)
bl_gpio_output_set                                /home/shoaib/bl_iot_sdk/customer_app/sdk_app_helloworld/build_out/hal_drv/libhal_drv.a(bl_gpio.o)
                                                  /home/shoaib/bl_iot_sdk/customer_app/sdk_app_helloworld/build_out/sdk_app_helloworld/libsdk_app_helloworld.a(led.o)
bl_gpio_register                                  /home/shoaib/bl_iot_sdk/customer_app/sdk_app_helloworld/build_out/hal_drv/libhal_drv.a(bl_gpio.o)
bl_irq_ctx_get                                    /home/shoaib/bl_iot_sdk/customer_app/sdk_app_helloworld/build_out/hal_drv/libhal_drv.a(bl_irq.o)
bl_irq_default                                    /home/shoaib/bl_iot_sdk/customer_app/sdk_app_helloworld/build_out/hal_drv/libhal_drv.a(bl_irq.o)
bl_irq_disable                                    /home/shoaib/bl_iot_sdk/customer_app/sdk_app_helloworld/build_out/hal_drv/libhal_drv.a(bl_irq.o)
                                                  /home/shoaib/bl_iot_sdk/customer_app/sdk_app_helloworld/build_out/hal_drv/libhal_drv.a(bl_uart.o)
bl_irq_enable                                     /home/shoaib/bl_iot_sdk/customer_app/sdk_app_helloworld/build_out/hal_drv/libhal_drv.a(bl_irq.o)
                                                  /home/shoaib/bl_iot_sdk/customer_app/sdk_app_helloworld/build_out/hal_drv/libhal_drv.a(bl_gpio.o)
                                                  /home/shoaib/bl_iot_sdk/customer_app/sdk_app_helloworld/build_out/hal_drv/libhal_drv.a(bl_uart.o)
bl_irq_exception_trigger                          /home/shoaib/bl_iot_sdk/customer_app/sdk_app_helloworld/build_out/hal_drv/libhal_drv.a(bl_irq.o)
bl_irq_init                                       /home/shoaib/bl_iot_sdk/customer_app/sdk_app_helloworld/build_out/hal_drv/libhal_drv.a(bl_irq.o)
bl_irq_pending_clear                              /home/shoaib/bl_iot_sdk/customer_app/sdk_app_helloworld/build_out/hal_drv/libhal_drv.a(bl_irq.o)
bl_irq_pending_set                                /home/shoaib/bl_iot_sdk/customer_app/sdk_app_helloworld/build_out/hal_drv/libhal_drv.a(bl_irq.o)
bl_irq_register                                   /home/shoaib/bl_iot_sdk/customer_app/sdk_app_helloworld/build_out/hal_drv/libhal_drv.a(bl_irq.o)
                                                  /home/shoaib/bl_iot_sdk/customer_app/sdk_app_helloworld/build_out/hal_drv/libhal_drv.a(bl_uart.o)
bl_irq_register_with_ctx                          /home/shoaib/bl_iot_sdk/customer_app/sdk_app_helloworld/build_out/hal_drv/libhal_drv.a(bl_irq.o)
                                                  /home/shoaib/bl_iot_sdk/customer_app/sdk_app_helloworld/build_out/hal_drv/libhal_drv.a(bl_gpio.o)
bl_irq_unregister                                 /home/shoaib/bl_iot_sdk/customer_app/sdk_app_helloworld/build_out/hal_drv/libhal_drv.a(bl_irq.o)
                                                  /home/shoaib/bl_iot_sdk/customer_app/sdk_app_helloworld/build_out/hal_drv/libhal_drv.a(bl_uart.o)
bl_putchar                                        /home/shoaib/bl_iot_sdk/customer_app/sdk_app_helloworld/build_out/bl602/libbl602.a(debug.o)
bl_rtc_get_counter                                /home/shoaib/bl_iot_sdk/customer_app/sdk_app_helloworld/build_out/hal_drv/libhal_drv.a(bl_rtc.o)
bl_rtc_get_timestamp_ms                           /home/shoaib/bl_iot_sdk/customer_app/sdk_app_helloworld/build_out/hal_drv/libhal_drv.a(bl_rtc.o)
                                                  /home/shoaib/bl_iot_sdk/customer_app/sdk_app_helloworld/build_out/bltime/libbltime.a(bl_sys_time.o)
bl_rtc_init                                       /home/shoaib/bl_iot_sdk/customer_app/sdk_app_helloworld/build_out/hal_drv/libhal_drv.a(bl_rtc.o)
bl_set_gpio_intmod                                /home/shoaib/bl_iot_sdk/customer_app/sdk_app_helloworld/build_out/hal_drv/libhal_drv.a(bl_gpio.o)
bl_sys_early_init                                 /home/shoaib/bl_iot_sdk/customer_app/sdk_app_helloworld/build_out/hal_drv/libhal_drv.a(bl_sys.o)
bl_sys_em_config                                  /home/shoaib/bl_iot_sdk/customer_app/sdk_app_helloworld/build_out/hal_drv/libhal_drv.a(bl_sys.o)
bl_sys_init                                       /home/shoaib/bl_iot_sdk/customer_app/sdk_app_helloworld/build_out/hal_drv/libhal_drv.a(bl_sys.o)
bl_sys_isxipaddr                                  /home/shoaib/bl_iot_sdk/customer_app/sdk_app_helloworld/build_out/hal_drv/libhal_drv.a(bl_sys.o)
bl_sys_logall_disable                             /home/shoaib/bl_iot_sdk/customer_app/sdk_app_helloworld/build_out/hal_drv/libhal_drv.a(bl_sys.o)
bl_sys_logall_enable                              /home/shoaib/bl_iot_sdk/customer_app/sdk_app_helloworld/build_out/hal_drv/libhal_drv.a(bl_sys.o)
bl_sys_mfg_config                                 /home/shoaib/bl_iot_sdk/customer_app/sdk_app_helloworld/build_out/hal_drv/libhal_drv.a(bl_sys.o)
bl_sys_reset_por                                  /home/shoaib/bl_iot_sdk/customer_app/sdk_app_helloworld/build_out/hal_drv/libhal_drv.a(bl_sys.o)
bl_sys_reset_system                               /home/shoaib/bl_iot_sdk/customer_app/sdk_app_helloworld/build_out/hal_drv/libhal_drv.a(bl_sys.o)
bl_sys_time_get                                   /home/shoaib/bl_iot_sdk/customer_app/sdk_app_helloworld/build_out/bltime/libbltime.a(bl_sys_time.o)
bl_sys_time_sync                                  /home/shoaib/bl_iot_sdk/customer_app/sdk_app_helloworld/build_out/bltime/libbltime.a(bl_sys_time.o)
bl_sys_time_sync_init                             /home/shoaib/bl_iot_sdk/customer_app/sdk_app_helloworld/build_out/bltime/libbltime.a(bl_sys_time.o)
bl_sys_time_sync_state                            /home/shoaib/bl_iot_sdk/customer_app/sdk_app_helloworld/build_out/bltime/libbltime.a(bl_sys_time.o)
                                                  /home/shoaib/bl_iot_sdk/customer_app/sdk_app_helloworld/build_out/freertos_riscv_ram/libfreertos_riscv_ram.a(tasks.o)
bl_sys_time_update                                /home/shoaib/bl_iot_sdk/customer_app/sdk_app_helloworld/build_out/bltime/libbltime.a(bl_sys_time.o)
bl_uart_data_recv                                 /home/shoaib/bl_iot_sdk/customer_app/sdk_app_helloworld/build_out/hal_drv/libhal_drv.a(bl_uart.o)
bl_uart_data_send                                 /home/shoaib/bl_iot_sdk/customer_app/sdk_app_helloworld/build_out/hal_drv/libhal_drv.a(bl_uart.o)
                                                  /home/shoaib/bl_iot_sdk/customer_app/sdk_app_helloworld/build_out/bl602/libbl602.a(debug.o)
bl_uart_flush                                     /home/shoaib/bl_iot_sdk/customer_app/sdk_app_helloworld/build_out/hal_drv/libhal_drv.a(bl_uart.o)
bl_uart_getdefconfig                              /home/shoaib/bl_iot_sdk/customer_app/sdk_app_helloworld/build_out/hal_drv/libhal_drv.a(bl_uart.o)
bl_uart_init                                      /home/shoaib/bl_iot_sdk/customer_app/sdk_app_helloworld/build_out/hal_drv/libhal_drv.a(bl_uart.o)
                                                  /home/shoaib/bl_iot_sdk/customer_app/sdk_app_helloworld/build_out/sdk_app_helloworld/libsdk_app_helloworld.a(main.o)
bl_uart_int_disable                               /home/shoaib/bl_iot_sdk/customer_app/sdk_app_helloworld/build_out/hal_drv/libhal_drv.a(bl_uart.o)
bl_uart_int_enable                                /home/shoaib/bl_iot_sdk/customer_app/sdk_app_helloworld/build_out/hal_drv/libhal_drv.a(bl_uart.o)
bl_uart_int_rx_disable                            /home/shoaib/bl_iot_sdk/customer_app/sdk_app_helloworld/build_out/hal_drv/libhal_drv.a(bl_uart.o)
bl_uart_int_rx_enable                             /home/shoaib/bl_iot_sdk/customer_app/sdk_app_helloworld/build_out/hal_drv/libhal_drv.a(bl_uart.o)
bl_uart_int_rx_notify_register                    /home/shoaib/bl_iot_sdk/customer_app/sdk_app_helloworld/build_out/hal_drv/libhal_drv.a(bl_uart.o)
bl_uart_int_rx_notify_unregister                  /home/shoaib/bl_iot_sdk/customer_app/sdk_app_helloworld/build_out/hal_drv/libhal_drv.a(bl_uart.o)
bl_uart_int_tx_disable                            /home/shoaib/bl_iot_sdk/customer_app/sdk_app_helloworld/build_out/hal_drv/libhal_drv.a(bl_uart.o)
bl_uart_int_tx_enable                             /home/shoaib/bl_iot_sdk/customer_app/sdk_app_helloworld/build_out/hal_drv/libhal_drv.a(bl_uart.o)
bl_uart_int_tx_notify_register                    /home/shoaib/bl_iot_sdk/customer_app/sdk_app_helloworld/build_out/hal_drv/libhal_drv.a(bl_uart.o)
bl_uart_int_tx_notify_unregister                  /home/shoaib/bl_iot_sdk/customer_app/sdk_app_helloworld/build_out/hal_drv/libhal_drv.a(bl_uart.o)
bl_uart_setbaud                                   /home/shoaib/bl_iot_sdk/customer_app/sdk_app_helloworld/build_out/hal_drv/libhal_drv.a(bl_uart.o)
bl_uart_setconfig                                 /home/shoaib/bl_iot_sdk/customer_app/sdk_app_helloworld/build_out/hal_drv/libhal_drv.a(bl_uart.o)
chCRCHTalbe                                       /home/shoaib/bl_iot_sdk/customer_app/sdk_app_helloworld/build_out/bl602_std/libbl602_std.a(softcrc.o)
chCRCLTalbe                                       /home/shoaib/bl_iot_sdk/customer_app/sdk_app_helloworld/build_out/bl602_std/libbl602_std.a(softcrc.o)
convert_to_binary                                 /home/shoaib/bl_iot_sdk/customer_app/sdk_app_helloworld/build_out/sdk_app_helloworld/libsdk_app_helloworld.a(main.o)
crc32Tab                                          /home/shoaib/bl_iot_sdk/customer_app/sdk_app_helloworld/build_out/bl602_std/libbl602_std.a(softcrc.o)
eTaskGetState                                     /home/shoaib/bl_iot_sdk/customer_app/sdk_app_helloworld/build_out/freertos_riscv_ram/libfreertos_riscv_ram.a(tasks.o)
ecvtbuf                                           /home/shoaib/bl_iot_sdk/customer_app/sdk_app_helloworld/build_out/bl602/libbl602.a(debug.o)
exception_entry                                   /home/shoaib/bl_iot_sdk/customer_app/sdk_app_helloworld/build_out/hal_drv/libhal_drv.a(bl_irq.o)
                                                  /home/shoaib/bl_iot_sdk/customer_app/sdk_app_helloworld/build_out/freertos_riscv_ram/libfreertos_riscv_ram.a(portASM.o)
fcvtbuf                                           /home/shoaib/bl_iot_sdk/customer_app/sdk_app_helloworld/build_out/bl602/libbl602.a(debug.o)
freertos_risc_v_trap_handler                      /home/shoaib/bl_iot_sdk/customer_app/sdk_app_helloworld/build_out/freertos_riscv_ram/libfreertos_riscv_ram.a(portASM.o)
                                                  /home/shoaib/bl_iot_sdk/customer_app/sdk_app_helloworld/build_out/hal_drv/libhal_drv.a(bl_sys.o)
get_f32_reg                                       /home/shoaib/bl_iot_sdk/customer_app/sdk_app_helloworld/build_out/freertos_riscv_ram/libfreertos_riscv_ram.a(fp_asm.o)
                                                  /home/shoaib/bl_iot_sdk/customer_app/sdk_app_helloworld/build_out/freertos_riscv_ram/libfreertos_riscv_ram.a(misaligned_ldst.o)
hal_boot2_dump                                    /home/shoaib/bl_iot_sdk/customer_app/sdk_app_helloworld/build_out/hal_drv/libhal_drv.a(hal_boot2.o)
hal_boot2_get_active_entries                      /home/shoaib/bl_iot_sdk/customer_app/sdk_app_helloworld/build_out/hal_drv/libhal_drv.a(hal_boot2.o)
hal_boot2_get_active_partition                    /home/shoaib/bl_iot_sdk/customer_app/sdk_app_helloworld/build_out/hal_drv/libhal_drv.a(hal_boot2.o)
hal_boot2_get_flash_addr                          /home/shoaib/bl_iot_sdk/customer_app/sdk_app_helloworld/build_out/hal_drv/libhal_drv.a(hal_boot2.o)
                                                  /home/shoaib/bl_iot_sdk/customer_app/sdk_app_helloworld/build_out/bl602/libbl602.a(start.o)
hal_boot2_init                                    /home/shoaib/bl_iot_sdk/customer_app/sdk_app_helloworld/build_out/hal_drv/libhal_drv.a(hal_boot2.o)
hal_boot2_partition_addr                          /home/shoaib/bl_iot_sdk/customer_app/sdk_app_helloworld/build_out/hal_drv/libhal_drv.a(hal_boot2.o)
hal_boot2_partition_addr_active                   /home/shoaib/bl_iot_sdk/customer_app/sdk_app_helloworld/build_out/hal_drv/libhal_drv.a(hal_boot2.o)
hal_boot2_partition_addr_inactive                 /home/shoaib/bl_iot_sdk/customer_app/sdk_app_helloworld/build_out/hal_drv/libhal_drv.a(hal_boot2.o)
hal_boot2_partition_bus_addr                      /home/shoaib/bl_iot_sdk/customer_app/sdk_app_helloworld/build_out/hal_drv/libhal_drv.a(hal_boot2.o)
hal_boot2_partition_bus_addr_active               /home/shoaib/bl_iot_sdk/customer_app/sdk_app_helloworld/build_out/hal_drv/libhal_drv.a(hal_boot2.o)
hal_boot2_partition_bus_addr_inactive             /home/shoaib/bl_iot_sdk/customer_app/sdk_app_helloworld/build_out/hal_drv/libhal_drv.a(hal_boot2.o)
hal_boot2_set_ptable_opt                          /home/shoaib/bl_iot_sdk/customer_app/sdk_app_helloworld/build_out/hal_drv/libhal_drv.a(hal_boot2.o)
hal_boot2_update_ptable                           /home/shoaib/bl_iot_sdk/customer_app/sdk_app_helloworld/build_out/hal_drv/libhal_drv.a(hal_boot2.o)
init_adc                                          /home/shoaib/bl_iot_sdk/customer_app/sdk_app_helloworld/build_out/sdk_app_helloworld/libsdk_app_helloworld.a(main.o)
interrupt_entry                                   /home/shoaib/bl_iot_sdk/customer_app/sdk_app_helloworld/build_out/hal_drv/libhal_drv.a(bl_irq.o)
                                                  /home/shoaib/bl_iot_sdk/customer_app/sdk_app_helloworld/build_out/freertos_riscv_ram/libfreertos_riscv_ram.a(portASM.o)
memcpy                                            /home/shoaib/bl_iot_sdk/toolchain/riscv/Linux/bin/../lib/gcc/riscv64-unknown-elf/8.3.0/../../../../riscv64-unknown-elf/lib/rv32imf/ilp32f/libc.a(lib_a-memcpy.o)
                                                  /home/shoaib/bl_iot_sdk/customer_app/sdk_app_helloworld/build_out/hal_drv/libhal_drv.a(bl_uart.o)
                                                  /home/shoaib/bl_iot_sdk/customer_app/sdk_app_helloworld/build_out/freertos_riscv_ram/libfreertos_riscv_ram.a(queue.o)
                                                  /home/shoaib/bl_iot_sdk/customer_app/sdk_app_helloworld/build_out/hal_drv/libhal_drv.a(bl_flash.o)
                                                  /home/shoaib/bl_iot_sdk/customer_app/sdk_app_helloworld/build_out/hal_drv/libhal_drv.a(bl_boot2.o)
memset                                            /home/shoaib/bl_iot_sdk/toolchain/riscv/Linux/bin/../lib/gcc/riscv64-unknown-elf/8.3.0/../../../../riscv64-unknown-elf/lib/rv32imf/ilp32f/libc.a(lib_a-memset.o)
                                                  /home/shoaib/bl_iot_sdk/customer_app/sdk_app_helloworld/build_out/freertos_riscv_ram/libfreertos_riscv_ram.a(heap_5.o)
                                                  /home/shoaib/bl_iot_sdk/customer_app/sdk_app_helloworld/build_out/freertos_riscv_ram/libfreertos_riscv_ram.a(tasks.o)
misaligned_load_trap                              /home/shoaib/bl_iot_sdk/customer_app/sdk_app_helloworld/build_out/freertos_riscv_ram/libfreertos_riscv_ram.a(misaligned_ldst.o)
                                                  /home/shoaib/bl_iot_sdk/customer_app/sdk_app_helloworld/build_out/hal_drv/libhal_drv.a(bl_irq.o)
misaligned_store_trap                             /home/shoaib/bl_iot_sdk/customer_app/sdk_app_helloworld/build_out/freertos_riscv_ram/libfreertos_riscv_ram.a(misaligned_ldst.o)
                                                  /home/shoaib/bl_iot_sdk/customer_app/sdk_app_helloworld/build_out/hal_drv/libhal_drv.a(bl_irq.o)
modf                                              /home/shoaib/bl_iot_sdk/toolchain/riscv/Linux/bin/../lib/gcc/riscv64-unknown-elf/8.3.0/../../../../riscv64-unknown-elf/lib/rv32imf/ilp32f/libm.a(lib_a-s_modf.o)
                                                  /home/shoaib/bl_iot_sdk/customer_app/sdk_app_helloworld/build_out/bl602/libbl602.a(debug.o)
pTrapNetCounter                                   /home/shoaib/bl_iot_sdk/customer_app/sdk_app_helloworld/build_out/freertos_riscv_ram/libfreertos_riscv_ram.a(port.o)
                                                  /home/shoaib/bl_iot_sdk/customer_app/sdk_app_helloworld/build_out/freertos_riscv_ram/libfreertos_riscv_ram.a(portASM.o)
pcQueueGetName                                    /home/shoaib/bl_iot_sdk/customer_app/sdk_app_helloworld/build_out/freertos_riscv_ram/libfreertos_riscv_ram.a(queue.o)
pcTaskGetName                                     /home/shoaib/bl_iot_sdk/customer_app/sdk_app_helloworld/build_out/freertos_riscv_ram/libfreertos_riscv_ram.a(tasks.o)
pcTimerGetName                                    /home/shoaib/bl_iot_sdk/customer_app/sdk_app_helloworld/build_out/freertos_riscv_ram/libfreertos_riscv_ram.a(timers.o)
printf                                            /home/shoaib/bl_iot_sdk/customer_app/sdk_app_helloworld/build_out/bl602/libbl602.a(debug.o)
                                                  /home/shoaib/bl_iot_sdk/customer_app/sdk_app_helloworld/build_out/sdk_app_helloworld/libsdk_app_helloworld.a(freertos.o)
                                                  /home/shoaib/bl_iot_sdk/customer_app/sdk_app_helloworld/build_out/hal_drv/libhal_drv.a(bl_irq.o)
                                                  /home/shoaib/bl_iot_sdk/customer_app/sdk_app_helloworld/build_out/sdk_app_helloworld/libsdk_app_helloworld.a(led.o)
                                                  /home/shoaib/bl_iot_sdk/customer_app/sdk_app_helloworld/build_out/sdk_app_helloworld/libsdk_app_helloworld.a(main.o)
pullMachineTimerCompareRegister                   /home/shoaib/bl_iot_sdk/customer_app/sdk_app_helloworld/build_out/freertos_riscv_ram/libfreertos_riscv_ram.a(port.o)
                                                  /home/shoaib/bl_iot_sdk/customer_app/sdk_app_helloworld/build_out/freertos_riscv_ram/libfreertos_riscv_ram.a(portASM.o)
pullNextTime                                      /home/shoaib/bl_iot_sdk/customer_app/sdk_app_helloworld/build_out/freertos_riscv_ram/libfreertos_riscv_ram.a(port.o)
                                                  /home/shoaib/bl_iot_sdk/customer_app/sdk_app_helloworld/build_out/freertos_riscv_ram/libfreertos_riscv_ram.a(portASM.o)
put_f32_reg                                       /home/shoaib/bl_iot_sdk/customer_app/sdk_app_helloworld/build_out/freertos_riscv_ram/libfreertos_riscv_ram.a(fp_asm.o)
puts                                              /home/shoaib/bl_iot_sdk/customer_app/sdk_app_helloworld/build_out/bl602/libbl602.a(debug.o)
                                                  /home/shoaib/bl_iot_sdk/customer_app/sdk_app_helloworld/build_out/hal_drv/libhal_drv.a(bl_irq.o)
pvPortCalloc                                      /home/shoaib/bl_iot_sdk/customer_app/sdk_app_helloworld/build_out/freertos_riscv_ram/libfreertos_riscv_ram.a(heap_5.o)
pvPortMalloc                                      /home/shoaib/bl_iot_sdk/customer_app/sdk_app_helloworld/build_out/freertos_riscv_ram/libfreertos_riscv_ram.a(heap_5.o)
                                                  /home/shoaib/bl_iot_sdk/customer_app/sdk_app_helloworld/build_out/freertos_riscv_ram/libfreertos_riscv_ram.a(queue.o)
                                                  /home/shoaib/bl_iot_sdk/customer_app/sdk_app_helloworld/build_out/freertos_riscv_ram/libfreertos_riscv_ram.a(timers.o)
                                                  /home/shoaib/bl_iot_sdk/customer_app/sdk_app_helloworld/build_out/freertos_riscv_ram/libfreertos_riscv_ram.a(tasks.o)
pvTaskIncrementMutexHeldCount                     /home/shoaib/bl_iot_sdk/customer_app/sdk_app_helloworld/build_out/freertos_riscv_ram/libfreertos_riscv_ram.a(tasks.o)
                                                  /home/shoaib/bl_iot_sdk/customer_app/sdk_app_helloworld/build_out/freertos_riscv_ram/libfreertos_riscv_ram.a(queue.o)
pvTimerGetTimerID                                 /home/shoaib/bl_iot_sdk/customer_app/sdk_app_helloworld/build_out/freertos_riscv_ram/libfreertos_riscv_ram.a(timers.o)
pxCurrentTCB                                      /home/shoaib/bl_iot_sdk/customer_app/sdk_app_helloworld/build_out/freertos_riscv_ram/libfreertos_riscv_ram.a(tasks.o)
                                                  /home/shoaib/bl_iot_sdk/customer_app/sdk_app_helloworld/build_out/freertos_riscv_ram/libfreertos_riscv_ram.a(portASM.o)
pxPortInitialiseStack                             /home/shoaib/bl_iot_sdk/customer_app/sdk_app_helloworld/build_out/freertos_riscv_ram/libfreertos_riscv_ram.a(portASM.o)
                                                  /home/shoaib/bl_iot_sdk/customer_app/sdk_app_helloworld/build_out/freertos_riscv_ram/libfreertos_riscv_ram.a(tasks.o)
rand                                              /home/shoaib/bl_iot_sdk/toolchain/riscv/Linux/bin/../lib/gcc/riscv64-unknown-elf/8.3.0/../../../../riscv64-unknown-elf/lib/rv32imf/ilp32f/libc.a(lib_a-rand.o)
                                                  /home/shoaib/bl_iot_sdk/customer_app/sdk_app_helloworld/build_out/sdk_app_helloworld/libsdk_app_helloworld.a(main.o)
read_adc                                          /home/shoaib/bl_iot_sdk/customer_app/sdk_app_helloworld/build_out/sdk_app_helloworld/libsdk_app_helloworld.a(main.o)
read_humidity                                     /home/shoaib/bl_iot_sdk/customer_app/sdk_app_helloworld/build_out/sdk_app_helloworld/libsdk_app_helloworld.a(main.o)
                                                  /home/shoaib/bl_iot_sdk/customer_app/sdk_app_helloworld/build_out/sdk_app_helloworld/libsdk_app_helloworld.a(led.o)
read_temperature                                  /home/shoaib/bl_iot_sdk/customer_app/sdk_app_helloworld/build_out/sdk_app_helloworld/libsdk_app_helloworld.a(main.o)
                                                  /home/shoaib/bl_iot_sdk/customer_app/sdk_app_helloworld/build_out/sdk_app_helloworld/libsdk_app_helloworld.a(led.o)
snprintf                                          /home/shoaib/bl_iot_sdk/customer_app/sdk_app_helloworld/build_out/bl602/libbl602.a(debug.o)
sprintf                                           /home/shoaib/bl_iot_sdk/customer_app/sdk_app_helloworld/build_out/bl602/libbl602.a(debug.o)
                                                  /home/shoaib/bl_iot_sdk/customer_app/sdk_app_helloworld/build_out/freertos_riscv_ram/libfreertos_riscv_ram.a(tasks.o)
srand                                             /home/shoaib/bl_iot_sdk/toolchain/riscv/Linux/bin/../lib/gcc/riscv64-unknown-elf/8.3.0/../../../../riscv64-unknown-elf/lib/rv32imf/ilp32f/libc.a(lib_a-rand.o)
strcmp                                            /home/shoaib/bl_iot_sdk/toolchain/riscv/Linux/bin/../lib/gcc/riscv64-unknown-elf/8.3.0/../../../../riscv64-unknown-elf/lib/rv32imf/ilp32f/libc.a(lib_a-strcmp.o)
                                                  /home/shoaib/bl_iot_sdk/customer_app/sdk_app_helloworld/build_out/hal_drv/libhal_drv.a(hal_boot2.o)
strcpy                                            /home/shoaib/bl_iot_sdk/toolchain/riscv/Linux/bin/../lib/gcc/riscv64-unknown-elf/8.3.0/../../../../riscv64-unknown-elf/lib/rv32imf/ilp32f/libc.a(lib_a-strcpy.o)
                                                  /home/shoaib/bl_iot_sdk/customer_app/sdk_app_helloworld/build_out/freertos_riscv_ram/libfreertos_riscv_ram.a(tasks.o)
strlen                                            /home/shoaib/bl_iot_sdk/toolchain/riscv/Linux/bin/../lib/gcc/riscv64-unknown-elf/8.3.0/../../../../riscv64-unknown-elf/lib/rv32imf/ilp32f/libc.a(lib_a-strlen.o)
                                                  /home/shoaib/bl_iot_sdk/customer_app/sdk_app_helloworld/build_out/freertos_riscv_ram/libfreertos_riscv_ram.a(tasks.o)
                                                  /home/shoaib/bl_iot_sdk/customer_app/sdk_app_helloworld/build_out/bl602/libbl602.a(debug.o)
strnlen                                           /home/shoaib/bl_iot_sdk/toolchain/riscv/Linux/bin/../lib/gcc/riscv64-unknown-elf/8.3.0/../../../../riscv64-unknown-elf/lib/rv32imf/ilp32f/libc.a(lib_a-strnlen.o)
                                                  /home/shoaib/bl_iot_sdk/customer_app/sdk_app_helloworld/build_out/bl602/libbl602.a(debug.o)
sys_log_all_enable                                /home/shoaib/bl_iot_sdk/customer_app/sdk_app_helloworld/build_out/hal_drv/libhal_drv.a(bl_sys.o)
                                                  /home/shoaib/bl_iot_sdk/customer_app/sdk_app_helloworld/build_out/bl602/libbl602.a(debug.o)
task_adc                                          /home/shoaib/bl_iot_sdk/customer_app/sdk_app_helloworld/build_out/sdk_app_helloworld/libsdk_app_helloworld.a(main.o)
task_led                                          /home/shoaib/bl_iot_sdk/customer_app/sdk_app_helloworld/build_out/sdk_app_helloworld/libsdk_app_helloworld.a(led.o)
                                                  /home/shoaib/bl_iot_sdk/customer_app/sdk_app_helloworld/build_out/sdk_app_helloworld/libsdk_app_helloworld.a(main.o)
truly_illegal_insn                                /home/shoaib/bl_iot_sdk/customer_app/sdk_app_helloworld/build_out/freertos_riscv_ram/libfreertos_riscv_ram.a(misaligned_ldst.o)
ucQueueGetQueueType                               /home/shoaib/bl_iot_sdk/customer_app/sdk_app_helloworld/build_out/freertos_riscv_ram/libfreertos_riscv_ram.a(queue.o)
ulTaskNotifyTake                                  /home/shoaib/bl_iot_sdk/customer_app/sdk_app_helloworld/build_out/freertos_riscv_ram/libfreertos_riscv_ram.a(tasks.o)
ullNextTime                                       /home/shoaib/bl_iot_sdk/customer_app/sdk_app_helloworld/build_out/freertos_riscv_ram/libfreertos_riscv_ram.a(port.o)
uxListRemove                                      /home/shoaib/bl_iot_sdk/customer_app/sdk_app_helloworld/build_out/freertos_riscv_ram/libfreertos_riscv_ram.a(list.o)
                                                  /home/shoaib/bl_iot_sdk/customer_app/sdk_app_helloworld/build_out/freertos_riscv_ram/libfreertos_riscv_ram.a(timers.o)
                                                  /home/shoaib/bl_iot_sdk/customer_app/sdk_app_helloworld/build_out/freertos_riscv_ram/libfreertos_riscv_ram.a(tasks.o)
uxQueueGetQueueNumber                             /home/shoaib/bl_iot_sdk/customer_app/sdk_app_helloworld/build_out/freertos_riscv_ram/libfreertos_riscv_ram.a(queue.o)
uxQueueMessagesWaiting                            /home/shoaib/bl_iot_sdk/customer_app/sdk_app_helloworld/build_out/freertos_riscv_ram/libfreertos_riscv_ram.a(queue.o)
uxQueueMessagesWaitingFromISR                     /home/shoaib/bl_iot_sdk/customer_app/sdk_app_helloworld/build_out/freertos_riscv_ram/libfreertos_riscv_ram.a(queue.o)
uxQueueSpacesAvailable                            /home/shoaib/bl_iot_sdk/customer_app/sdk_app_helloworld/build_out/freertos_riscv_ram/libfreertos_riscv_ram.a(queue.o)
uxTaskGetNumberOfTasks                            /home/shoaib/bl_iot_sdk/customer_app/sdk_app_helloworld/build_out/freertos_riscv_ram/libfreertos_riscv_ram.a(tasks.o)
uxTaskGetStackHighWaterMark                       /home/shoaib/bl_iot_sdk/customer_app/sdk_app_helloworld/build_out/freertos_riscv_ram/libfreertos_riscv_ram.a(tasks.o)
uxTaskGetSystemState                              /home/shoaib/bl_iot_sdk/customer_app/sdk_app_helloworld/build_out/freertos_riscv_ram/libfreertos_riscv_ram.a(tasks.o)
uxTaskGetTaskNumber                               /home/shoaib/bl_iot_sdk/customer_app/sdk_app_helloworld/build_out/freertos_riscv_ram/libfreertos_riscv_ram.a(tasks.o)
uxTaskPriorityGet                                 /home/shoaib/bl_iot_sdk/customer_app/sdk_app_helloworld/build_out/freertos_riscv_ram/libfreertos_riscv_ram.a(tasks.o)
uxTaskPriorityGetFromISR                          /home/shoaib/bl_iot_sdk/customer_app/sdk_app_helloworld/build_out/freertos_riscv_ram/libfreertos_riscv_ram.a(tasks.o)
uxTaskResetEventItemValue                         /home/shoaib/bl_iot_sdk/customer_app/sdk_app_helloworld/build_out/freertos_riscv_ram/libfreertos_riscv_ram.a(tasks.o)
uxTimerGetTimerNumber                             /home/shoaib/bl_iot_sdk/customer_app/sdk_app_helloworld/build_out/freertos_riscv_ram/libfreertos_riscv_ram.a(timers.o)
uxTimerIncrementsForOneTick                       /home/shoaib/bl_iot_sdk/customer_app/sdk_app_helloworld/build_out/freertos_riscv_ram/libfreertos_riscv_ram.a(port.o)
                                                  /home/shoaib/bl_iot_sdk/customer_app/sdk_app_helloworld/build_out/freertos_riscv_ram/libfreertos_riscv_ram.a(portASM.o)
uxTopUsedPriority                                 /home/shoaib/bl_iot_sdk/customer_app/sdk_app_helloworld/build_out/sdk_app_helloworld/libsdk_app_helloworld.a(freertos.o)
vApplicationGetIdleTaskMemory                     /home/shoaib/bl_iot_sdk/customer_app/sdk_app_helloworld/build_out/sdk_app_helloworld/libsdk_app_helloworld.a(freertos.o)
                                                  /home/shoaib/bl_iot_sdk/customer_app/sdk_app_helloworld/build_out/freertos_riscv_ram/libfreertos_riscv_ram.a(tasks.o)
vApplicationGetTimerTaskMemory                    /home/shoaib/bl_iot_sdk/customer_app/sdk_app_helloworld/build_out/sdk_app_helloworld/libsdk_app_helloworld.a(freertos.o)
                                                  /home/shoaib/bl_iot_sdk/customer_app/sdk_app_helloworld/build_out/freertos_riscv_ram/libfreertos_riscv_ram.a(timers.o)
vApplicationIdleHook                              /home/shoaib/bl_iot_sdk/customer_app/sdk_app_helloworld/build_out/sdk_app_helloworld/libsdk_app_helloworld.a(freertos.o)
                                                  /home/shoaib/bl_iot_sdk/customer_app/sdk_app_helloworld/build_out/freertos_riscv_ram/libfreertos_riscv_ram.a(tasks.o)
vApplicationMallocFailedHook                      /home/shoaib/bl_iot_sdk/customer_app/sdk_app_helloworld/build_out/sdk_app_helloworld/libsdk_app_helloworld.a(freertos.o)
                                                  /home/shoaib/bl_iot_sdk/customer_app/sdk_app_helloworld/build_out/freertos_riscv_ram/libfreertos_riscv_ram.a(heap_5.o)
vApplicationStackOverflowHook                     /home/shoaib/bl_iot_sdk/customer_app/sdk_app_helloworld/build_out/sdk_app_helloworld/libsdk_app_helloworld.a(freertos.o)
                                                  /home/shoaib/bl_iot_sdk/customer_app/sdk_app_helloworld/build_out/freertos_riscv_ram/libfreertos_riscv_ram.a(tasks.o)
vAssertCalled                                     /home/shoaib/bl_iot_sdk/customer_app/sdk_app_helloworld/build_out/sdk_app_helloworld/libsdk_app_helloworld.a(freertos.o)
                                                  /home/shoaib/bl_iot_sdk/customer_app/sdk_app_helloworld/build_out/freertos_riscv_ram/libfreertos_riscv_ram.a(queue.o)
                                                  /home/shoaib/bl_iot_sdk/customer_app/sdk_app_helloworld/build_out/freertos_riscv_ram/libfreertos_riscv_ram.a(heap_5.o)
                                                  /home/shoaib/bl_iot_sdk/customer_app/sdk_app_helloworld/build_out/freertos_riscv_ram/libfreertos_riscv_ram.a(port.o)
                                                  /home/shoaib/bl_iot_sdk/customer_app/sdk_app_helloworld/build_out/freertos_riscv_ram/libfreertos_riscv_ram.a(timers.o)
                                                  /home/shoaib/bl_iot_sdk/customer_app/sdk_app_helloworld/build_out/freertos_riscv_ram/libfreertos_riscv_ram.a(tasks.o)
vListInitialise                                   /home/shoaib/bl_iot_sdk/customer_app/sdk_app_helloworld/build_out/freertos_riscv_ram/libfreertos_riscv_ram.a(list.o)
                                                  /home/shoaib/bl_iot_sdk/customer_app/sdk_app_helloworld/build_out/freertos_riscv_ram/libfreertos_riscv_ram.a(queue.o)
                                                  /home/shoaib/bl_iot_sdk/customer_app/sdk_app_helloworld/build_out/freertos_riscv_ram/libfreertos_riscv_ram.a(timers.o)
                                                  /home/shoaib/bl_iot_sdk/customer_app/sdk_app_helloworld/build_out/freertos_riscv_ram/libfreertos_riscv_ram.a(tasks.o)
vListInitialiseItem                               /home/shoaib/bl_iot_sdk/customer_app/sdk_app_helloworld/build_out/freertos_riscv_ram/libfreertos_riscv_ram.a(list.o)
                                                  /home/shoaib/bl_iot_sdk/customer_app/sdk_app_helloworld/build_out/freertos_riscv_ram/libfreertos_riscv_ram.a(timers.o)
                                                  /home/shoaib/bl_iot_sdk/customer_app/sdk_app_helloworld/build_out/freertos_riscv_ram/libfreertos_riscv_ram.a(tasks.o)
vListInsert                                       /home/shoaib/bl_iot_sdk/customer_app/sdk_app_helloworld/build_out/freertos_riscv_ram/libfreertos_riscv_ram.a(list.o)
                                                  /home/shoaib/bl_iot_sdk/customer_app/sdk_app_helloworld/build_out/freertos_riscv_ram/libfreertos_riscv_ram.a(timers.o)
                                                  /home/shoaib/bl_iot_sdk/customer_app/sdk_app_helloworld/build_out/freertos_riscv_ram/libfreertos_riscv_ram.a(tasks.o)
vListInsertEnd                                    /home/shoaib/bl_iot_sdk/customer_app/sdk_app_helloworld/build_out/freertos_riscv_ram/libfreertos_riscv_ram.a(list.o)
                                                  /home/shoaib/bl_iot_sdk/customer_app/sdk_app_helloworld/build_out/freertos_riscv_ram/libfreertos_riscv_ram.a(tasks.o)
vMainUARTPrintString                              /home/shoaib/bl_iot_sdk/customer_app/sdk_app_helloworld/build_out/bl602/libbl602.a(debug.o)
vPortDefineHeapRegions                            /home/shoaib/bl_iot_sdk/customer_app/sdk_app_helloworld/build_out/freertos_riscv_ram/libfreertos_riscv_ram.a(heap_5.o)
                                                  /home/shoaib/bl_iot_sdk/customer_app/sdk_app_helloworld/build_out/sdk_app_helloworld/libsdk_app_helloworld.a(main.o)
vPortEndScheduler                                 /home/shoaib/bl_iot_sdk/customer_app/sdk_app_helloworld/build_out/freertos_riscv_ram/libfreertos_riscv_ram.a(port.o)
                                                  /home/shoaib/bl_iot_sdk/customer_app/sdk_app_helloworld/build_out/freertos_riscv_ram/libfreertos_riscv_ram.a(tasks.o)
vPortFree                                         /home/shoaib/bl_iot_sdk/customer_app/sdk_app_helloworld/build_out/freertos_riscv_ram/libfreertos_riscv_ram.a(heap_5.o)
                                                  /home/shoaib/bl_iot_sdk/customer_app/sdk_app_helloworld/build_out/freertos_riscv_ram/libfreertos_riscv_ram.a(queue.o)
                                                  /home/shoaib/bl_iot_sdk/customer_app/sdk_app_helloworld/build_out/freertos_riscv_ram/libfreertos_riscv_ram.a(timers.o)
                                                  /home/shoaib/bl_iot_sdk/customer_app/sdk_app_helloworld/build_out/freertos_riscv_ram/libfreertos_riscv_ram.a(tasks.o)
vPortSetupTimerInterrupt                          /home/shoaib/bl_iot_sdk/customer_app/sdk_app_helloworld/build_out/freertos_riscv_ram/libfreertos_riscv_ram.a(port.o)
vQueueAddToRegistry                               /home/shoaib/bl_iot_sdk/customer_app/sdk_app_helloworld/build_out/freertos_riscv_ram/libfreertos_riscv_ram.a(queue.o)
                                                  /home/shoaib/bl_iot_sdk/customer_app/sdk_app_helloworld/build_out/freertos_riscv_ram/libfreertos_riscv_ram.a(timers.o)
vQueueDelete                                      /home/shoaib/bl_iot_sdk/customer_app/sdk_app_helloworld/build_out/freertos_riscv_ram/libfreertos_riscv_ram.a(queue.o)
vQueueSetQueueNumber                              /home/shoaib/bl_iot_sdk/customer_app/sdk_app_helloworld/build_out/freertos_riscv_ram/libfreertos_riscv_ram.a(queue.o)
vQueueUnregisterQueue                             /home/shoaib/bl_iot_sdk/customer_app/sdk_app_helloworld/build_out/freertos_riscv_ram/libfreertos_riscv_ram.a(queue.o)
vQueueWaitForMessageRestricted                    /home/shoaib/bl_iot_sdk/customer_app/sdk_app_helloworld/build_out/freertos_riscv_ram/libfreertos_riscv_ram.a(queue.o)
                                                  /home/shoaib/bl_iot_sdk/customer_app/sdk_app_helloworld/build_out/freertos_riscv_ram/libfreertos_riscv_ram.a(timers.o)
vTaskDelay                                        /home/shoaib/bl_iot_sdk/customer_app/sdk_app_helloworld/build_out/freertos_riscv_ram/libfreertos_riscv_ram.a(tasks.o)
                                                  /home/shoaib/bl_iot_sdk/customer_app/sdk_app_helloworld/build_out/sdk_app_helloworld/libsdk_app_helloworld.a(led.o)
                                                  /home/shoaib/bl_iot_sdk/customer_app/sdk_app_helloworld/build_out/sdk_app_helloworld/libsdk_app_helloworld.a(main.o)
vTaskDelayUntil                                   /home/shoaib/bl_iot_sdk/customer_app/sdk_app_helloworld/build_out/freertos_riscv_ram/libfreertos_riscv_ram.a(tasks.o)
vTaskDelete                                       /home/shoaib/bl_iot_sdk/customer_app/sdk_app_helloworld/build_out/freertos_riscv_ram/libfreertos_riscv_ram.a(tasks.o)
vTaskEndScheduler                                 /home/shoaib/bl_iot_sdk/customer_app/sdk_app_helloworld/build_out/freertos_riscv_ram/libfreertos_riscv_ram.a(tasks.o)
vTaskEnterCritical                                /home/shoaib/bl_iot_sdk/customer_app/sdk_app_helloworld/build_out/freertos_riscv_ram/libfreertos_riscv_ram.a(tasks.o)
                                                  /home/shoaib/bl_iot_sdk/customer_app/sdk_app_helloworld/build_out/bltime/libbltime.a(bl_sys_time.o)
                                                  /home/shoaib/bl_iot_sdk/customer_app/sdk_app_helloworld/build_out/freertos_riscv_ram/libfreertos_riscv_ram.a(queue.o)
                                                  /home/shoaib/bl_iot_sdk/customer_app/sdk_app_helloworld/build_out/freertos_riscv_ram/libfreertos_riscv_ram.a(timers.o)
vTaskExitCritical                                 /home/shoaib/bl_iot_sdk/customer_app/sdk_app_helloworld/build_out/freertos_riscv_ram/libfreertos_riscv_ram.a(tasks.o)
                                                  /home/shoaib/bl_iot_sdk/customer_app/sdk_app_helloworld/build_out/bltime/libbltime.a(bl_sys_time.o)
                                                  /home/shoaib/bl_iot_sdk/customer_app/sdk_app_helloworld/build_out/freertos_riscv_ram/libfreertos_riscv_ram.a(queue.o)
                                                  /home/shoaib/bl_iot_sdk/customer_app/sdk_app_helloworld/build_out/freertos_riscv_ram/libfreertos_riscv_ram.a(timers.o)
vTaskGetInfo                                      /home/shoaib/bl_iot_sdk/customer_app/sdk_app_helloworld/build_out/freertos_riscv_ram/libfreertos_riscv_ram.a(tasks.o)
vTaskInternalSetTimeOutState                      /home/shoaib/bl_iot_sdk/customer_app/sdk_app_helloworld/build_out/freertos_riscv_ram/libfreertos_riscv_ram.a(tasks.o)
                                                  /home/shoaib/bl_iot_sdk/customer_app/sdk_app_helloworld/build_out/freertos_riscv_ram/libfreertos_riscv_ram.a(queue.o)
vTaskList                                         /home/shoaib/bl_iot_sdk/customer_app/sdk_app_helloworld/build_out/freertos_riscv_ram/libfreertos_riscv_ram.a(tasks.o)
vTaskMissedYield                                  /home/shoaib/bl_iot_sdk/customer_app/sdk_app_helloworld/build_out/freertos_riscv_ram/libfreertos_riscv_ram.a(tasks.o)
                                                  /home/shoaib/bl_iot_sdk/customer_app/sdk_app_helloworld/build_out/freertos_riscv_ram/libfreertos_riscv_ram.a(queue.o)
vTaskNotifyGiveFromISR                            /home/shoaib/bl_iot_sdk/customer_app/sdk_app_helloworld/build_out/freertos_riscv_ram/libfreertos_riscv_ram.a(tasks.o)
vTaskPlaceOnEventList                             /home/shoaib/bl_iot_sdk/customer_app/sdk_app_helloworld/build_out/freertos_riscv_ram/libfreertos_riscv_ram.a(tasks.o)
                                                  /home/shoaib/bl_iot_sdk/customer_app/sdk_app_helloworld/build_out/freertos_riscv_ram/libfreertos_riscv_ram.a(queue.o)
vTaskPlaceOnEventListRestricted                   /home/shoaib/bl_iot_sdk/customer_app/sdk_app_helloworld/build_out/freertos_riscv_ram/libfreertos_riscv_ram.a(tasks.o)
                                                  /home/shoaib/bl_iot_sdk/customer_app/sdk_app_helloworld/build_out/freertos_riscv_ram/libfreertos_riscv_ram.a(queue.o)
vTaskPlaceOnUnorderedEventList                    /home/shoaib/bl_iot_sdk/customer_app/sdk_app_helloworld/build_out/freertos_riscv_ram/libfreertos_riscv_ram.a(tasks.o)
vTaskPriorityDisinheritAfterTimeout               /home/shoaib/bl_iot_sdk/customer_app/sdk_app_helloworld/build_out/freertos_riscv_ram/libfreertos_riscv_ram.a(tasks.o)
                                                  /home/shoaib/bl_iot_sdk/customer_app/sdk_app_helloworld/build_out/freertos_riscv_ram/libfreertos_riscv_ram.a(queue.o)
vTaskPrioritySet                                  /home/shoaib/bl_iot_sdk/customer_app/sdk_app_helloworld/build_out/freertos_riscv_ram/libfreertos_riscv_ram.a(tasks.o)
vTaskRemoveFromUnorderedEventList                 /home/shoaib/bl_iot_sdk/customer_app/sdk_app_helloworld/build_out/freertos_riscv_ram/libfreertos_riscv_ram.a(tasks.o)
vTaskResume                                       /home/shoaib/bl_iot_sdk/customer_app/sdk_app_helloworld/build_out/freertos_riscv_ram/libfreertos_riscv_ram.a(tasks.o)
vTaskSetTaskNumber                                /home/shoaib/bl_iot_sdk/customer_app/sdk_app_helloworld/build_out/freertos_riscv_ram/libfreertos_riscv_ram.a(tasks.o)
vTaskSetTimeOutState                              /home/shoaib/bl_iot_sdk/customer_app/sdk_app_helloworld/build_out/freertos_riscv_ram/libfreertos_riscv_ram.a(tasks.o)
vTaskStartScheduler                               /home/shoaib/bl_iot_sdk/customer_app/sdk_app_helloworld/build_out/freertos_riscv_ram/libfreertos_riscv_ram.a(tasks.o)
                                                  /home/shoaib/bl_iot_sdk/customer_app/sdk_app_helloworld/build_out/sdk_app_helloworld/libsdk_app_helloworld.a(main.o)
vTaskStepTickSafe                                 /home/shoaib/bl_iot_sdk/customer_app/sdk_app_helloworld/build_out/freertos_riscv_ram/libfreertos_riscv_ram.a(tasks.o)
                                                  /home/shoaib/bl_iot_sdk/customer_app/sdk_app_helloworld/build_out/bltime/libbltime.a(bl_sys_time.o)
vTaskSuspend                                      /home/shoaib/bl_iot_sdk/customer_app/sdk_app_helloworld/build_out/freertos_riscv_ram/libfreertos_riscv_ram.a(tasks.o)
vTaskSuspendAll                                   /home/shoaib/bl_iot_sdk/customer_app/sdk_app_helloworld/build_out/freertos_riscv_ram/libfreertos_riscv_ram.a(tasks.o)
                                                  /home/shoaib/bl_iot_sdk/customer_app/sdk_app_helloworld/build_out/freertos_riscv_ram/libfreertos_riscv_ram.a(queue.o)
                                                  /home/shoaib/bl_iot_sdk/customer_app/sdk_app_helloworld/build_out/freertos_riscv_ram/libfreertos_riscv_ram.a(heap_5.o)
                                                  /home/shoaib/bl_iot_sdk/customer_app/sdk_app_helloworld/build_out/freertos_riscv_ram/libfreertos_riscv_ram.a(timers.o)
vTaskSwitchContext                                /home/shoaib/bl_iot_sdk/customer_app/sdk_app_helloworld/build_out/freertos_riscv_ram/libfreertos_riscv_ram.a(tasks.o)
                                                  /home/shoaib/bl_iot_sdk/customer_app/sdk_app_helloworld/build_out/freertos_riscv_ram/libfreertos_riscv_ram.a(portASM.o)
vTimerSetReloadMode                               /home/shoaib/bl_iot_sdk/customer_app/sdk_app_helloworld/build_out/freertos_riscv_ram/libfreertos_riscv_ram.a(timers.o)
vTimerSetTimerID                                  /home/shoaib/bl_iot_sdk/customer_app/sdk_app_helloworld/build_out/freertos_riscv_ram/libfreertos_riscv_ram.a(timers.o)
vTimerSetTimerNumber                              /home/shoaib/bl_iot_sdk/customer_app/sdk_app_helloworld/build_out/freertos_riscv_ram/libfreertos_riscv_ram.a(timers.o)
vprint                                            /home/shoaib/bl_iot_sdk/customer_app/sdk_app_helloworld/build_out/bl602/libbl602.a(debug.o)
vsnprintf                                         /home/shoaib/bl_iot_sdk/customer_app/sdk_app_helloworld/build_out/bl602/libbl602.a(debug.o)
vsprintf                                          /home/shoaib/bl_iot_sdk/customer_app/sdk_app_helloworld/build_out/bl602/libbl602.a(debug.o)
xISRStackTop                                      /home/shoaib/bl_iot_sdk/customer_app/sdk_app_helloworld/build_out/freertos_riscv_ram/libfreertos_riscv_ram.a(port.o)
                                                  /home/shoaib/bl_iot_sdk/customer_app/sdk_app_helloworld/build_out/freertos_riscv_ram/libfreertos_riscv_ram.a(portASM.o)
xPortGetFreeHeapSize                              /home/shoaib/bl_iot_sdk/customer_app/sdk_app_helloworld/build_out/freertos_riscv_ram/libfreertos_riscv_ram.a(heap_5.o)
                                                  /home/shoaib/bl_iot_sdk/customer_app/sdk_app_helloworld/build_out/sdk_app_helloworld/libsdk_app_helloworld.a(freertos.o)
xPortGetMinimumEverFreeHeapSize                   /home/shoaib/bl_iot_sdk/customer_app/sdk_app_helloworld/build_out/freertos_riscv_ram/libfreertos_riscv_ram.a(heap_5.o)
xPortStartFirstTask                               /home/shoaib/bl_iot_sdk/customer_app/sdk_app_helloworld/build_out/freertos_riscv_ram/libfreertos_riscv_ram.a(portASM.o)
                                                  /home/shoaib/bl_iot_sdk/customer_app/sdk_app_helloworld/build_out/freertos_riscv_ram/libfreertos_riscv_ram.a(port.o)
xPortStartScheduler                               /home/shoaib/bl_iot_sdk/customer_app/sdk_app_helloworld/build_out/freertos_riscv_ram/libfreertos_riscv_ram.a(port.o)
                                                  /home/shoaib/bl_iot_sdk/customer_app/sdk_app_helloworld/build_out/freertos_riscv_ram/libfreertos_riscv_ram.a(tasks.o)
xQueueCreateCountingSemaphore                     /home/shoaib/bl_iot_sdk/customer_app/sdk_app_helloworld/build_out/freertos_riscv_ram/libfreertos_riscv_ram.a(queue.o)
xQueueCreateCountingSemaphoreStatic               /home/shoaib/bl_iot_sdk/customer_app/sdk_app_helloworld/build_out/freertos_riscv_ram/libfreertos_riscv_ram.a(queue.o)
xQueueCreateMutex                                 /home/shoaib/bl_iot_sdk/customer_app/sdk_app_helloworld/build_out/freertos_riscv_ram/libfreertos_riscv_ram.a(queue.o)
xQueueCreateMutexStatic                           /home/shoaib/bl_iot_sdk/customer_app/sdk_app_helloworld/build_out/freertos_riscv_ram/libfreertos_riscv_ram.a(queue.o)
xQueueGenericCreate                               /home/shoaib/bl_iot_sdk/customer_app/sdk_app_helloworld/build_out/freertos_riscv_ram/libfreertos_riscv_ram.a(queue.o)
xQueueGenericCreateStatic                         /home/shoaib/bl_iot_sdk/customer_app/sdk_app_helloworld/build_out/freertos_riscv_ram/libfreertos_riscv_ram.a(queue.o)
                                                  /home/shoaib/bl_iot_sdk/customer_app/sdk_app_helloworld/build_out/freertos_riscv_ram/libfreertos_riscv_ram.a(timers.o)
xQueueGenericReset                                /home/shoaib/bl_iot_sdk/customer_app/sdk_app_helloworld/build_out/freertos_riscv_ram/libfreertos_riscv_ram.a(queue.o)
xQueueGenericSend                                 /home/shoaib/bl_iot_sdk/customer_app/sdk_app_helloworld/build_out/freertos_riscv_ram/libfreertos_riscv_ram.a(queue.o)
                                                  /home/shoaib/bl_iot_sdk/customer_app/sdk_app_helloworld/build_out/freertos_riscv_ram/libfreertos_riscv_ram.a(timers.o)
xQueueGenericSendFromISR                          /home/shoaib/bl_iot_sdk/customer_app/sdk_app_helloworld/build_out/freertos_riscv_ram/libfreertos_riscv_ram.a(queue.o)
                                                  /home/shoaib/bl_iot_sdk/customer_app/sdk_app_helloworld/build_out/freertos_riscv_ram/libfreertos_riscv_ram.a(timers.o)
xQueueGiveFromISR                                 /home/shoaib/bl_iot_sdk/customer_app/sdk_app_helloworld/build_out/freertos_riscv_ram/libfreertos_riscv_ram.a(queue.o)
xQueueGiveMutexRecursive                          /home/shoaib/bl_iot_sdk/customer_app/sdk_app_helloworld/build_out/freertos_riscv_ram/libfreertos_riscv_ram.a(queue.o)
xQueueIsQueueEmptyFromISR                         /home/shoaib/bl_iot_sdk/customer_app/sdk_app_helloworld/build_out/freertos_riscv_ram/libfreertos_riscv_ram.a(queue.o)
xQueueIsQueueFullFromISR                          /home/shoaib/bl_iot_sdk/customer_app/sdk_app_helloworld/build_out/freertos_riscv_ram/libfreertos_riscv_ram.a(queue.o)
xQueuePeek                                        /home/shoaib/bl_iot_sdk/customer_app/sdk_app_helloworld/build_out/freertos_riscv_ram/libfreertos_riscv_ram.a(queue.o)
xQueuePeekFromISR                                 /home/shoaib/bl_iot_sdk/customer_app/sdk_app_helloworld/build_out/freertos_riscv_ram/libfreertos_riscv_ram.a(queue.o)
xQueueReceive                                     /home/shoaib/bl_iot_sdk/customer_app/sdk_app_helloworld/build_out/freertos_riscv_ram/libfreertos_riscv_ram.a(queue.o)
                                                  /home/shoaib/bl_iot_sdk/customer_app/sdk_app_helloworld/build_out/freertos_riscv_ram/libfreertos_riscv_ram.a(timers.o)
xQueueReceiveFromISR                              /home/shoaib/bl_iot_sdk/customer_app/sdk_app_helloworld/build_out/freertos_riscv_ram/libfreertos_riscv_ram.a(queue.o)
xQueueRegistry                                    /home/shoaib/bl_iot_sdk/customer_app/sdk_app_helloworld/build_out/freertos_riscv_ram/libfreertos_riscv_ram.a(queue.o)
xQueueSemaphoreTake                               /home/shoaib/bl_iot_sdk/customer_app/sdk_app_helloworld/build_out/freertos_riscv_ram/libfreertos_riscv_ram.a(queue.o)
xQueueTakeMutexRecursive                          /home/shoaib/bl_iot_sdk/customer_app/sdk_app_helloworld/build_out/freertos_riscv_ram/libfreertos_riscv_ram.a(queue.o)
xTaskCheckForTimeOut                              /home/shoaib/bl_iot_sdk/customer_app/sdk_app_helloworld/build_out/freertos_riscv_ram/libfreertos_riscv_ram.a(tasks.o)
                                                  /home/shoaib/bl_iot_sdk/customer_app/sdk_app_helloworld/build_out/freertos_riscv_ram/libfreertos_riscv_ram.a(queue.o)
xTaskCreate                                       /home/shoaib/bl_iot_sdk/customer_app/sdk_app_helloworld/build_out/freertos_riscv_ram/libfreertos_riscv_ram.a(tasks.o)
xTaskCreateStatic                                 /home/shoaib/bl_iot_sdk/customer_app/sdk_app_helloworld/build_out/freertos_riscv_ram/libfreertos_riscv_ram.a(tasks.o)
                                                  /home/shoaib/bl_iot_sdk/customer_app/sdk_app_helloworld/build_out/freertos_riscv_ram/libfreertos_riscv_ram.a(timers.o)
                                                  /home/shoaib/bl_iot_sdk/customer_app/sdk_app_helloworld/build_out/sdk_app_helloworld/libsdk_app_helloworld.a(main.o)
xTaskGenericNotify                                /home/shoaib/bl_iot_sdk/customer_app/sdk_app_helloworld/build_out/freertos_riscv_ram/libfreertos_riscv_ram.a(tasks.o)
xTaskGenericNotifyFromISR                         /home/shoaib/bl_iot_sdk/customer_app/sdk_app_helloworld/build_out/freertos_riscv_ram/libfreertos_riscv_ram.a(tasks.o)
xTaskGetCurrentTaskHandle                         /home/shoaib/bl_iot_sdk/customer_app/sdk_app_helloworld/build_out/freertos_riscv_ram/libfreertos_riscv_ram.a(tasks.o)
                                                  /home/shoaib/bl_iot_sdk/customer_app/sdk_app_helloworld/build_out/freertos_riscv_ram/libfreertos_riscv_ram.a(queue.o)
xTaskGetSchedulerState                            /home/shoaib/bl_iot_sdk/customer_app/sdk_app_helloworld/build_out/freertos_riscv_ram/libfreertos_riscv_ram.a(tasks.o)
                                                  /home/shoaib/bl_iot_sdk/customer_app/sdk_app_helloworld/build_out/freertos_riscv_ram/libfreertos_riscv_ram.a(queue.o)
                                                  /home/shoaib/bl_iot_sdk/customer_app/sdk_app_helloworld/build_out/freertos_riscv_ram/libfreertos_riscv_ram.a(timers.o)
xTaskGetTickCount                                 /home/shoaib/bl_iot_sdk/customer_app/sdk_app_helloworld/build_out/freertos_riscv_ram/libfreertos_riscv_ram.a(tasks.o)
                                                  /home/shoaib/bl_iot_sdk/customer_app/sdk_app_helloworld/build_out/bltime/libbltime.a(bl_sys_time.o)
                                                  /home/shoaib/bl_iot_sdk/customer_app/sdk_app_helloworld/build_out/freertos_riscv_ram/libfreertos_riscv_ram.a(timers.o)
xTaskGetTickCount2                                /home/shoaib/bl_iot_sdk/customer_app/sdk_app_helloworld/build_out/freertos_riscv_ram/libfreertos_riscv_ram.a(tasks.o)
xTaskGetTickCountFromISR                          /home/shoaib/bl_iot_sdk/customer_app/sdk_app_helloworld/build_out/freertos_riscv_ram/libfreertos_riscv_ram.a(tasks.o)
xTaskIncrementTick                                /home/shoaib/bl_iot_sdk/customer_app/sdk_app_helloworld/build_out/freertos_riscv_ram/libfreertos_riscv_ram.a(tasks.o)
                                                  /home/shoaib/bl_iot_sdk/customer_app/sdk_app_helloworld/build_out/freertos_riscv_ram/libfreertos_riscv_ram.a(portASM.o)
xTaskNotifyStateClear                             /home/shoaib/bl_iot_sdk/customer_app/sdk_app_helloworld/build_out/freertos_riscv_ram/libfreertos_riscv_ram.a(tasks.o)
xTaskNotifyWait                                   /home/shoaib/bl_iot_sdk/customer_app/sdk_app_helloworld/build_out/freertos_riscv_ram/libfreertos_riscv_ram.a(tasks.o)
xTaskPriorityDisinherit                           /home/shoaib/bl_iot_sdk/customer_app/sdk_app_helloworld/build_out/freertos_riscv_ram/libfreertos_riscv_ram.a(tasks.o)
                                                  /home/shoaib/bl_iot_sdk/customer_app/sdk_app_helloworld/build_out/freertos_riscv_ram/libfreertos_riscv_ram.a(queue.o)
xTaskPriorityInherit                              /home/shoaib/bl_iot_sdk/customer_app/sdk_app_helloworld/build_out/freertos_riscv_ram/libfreertos_riscv_ram.a(tasks.o)
                                                  /home/shoaib/bl_iot_sdk/customer_app/sdk_app_helloworld/build_out/freertos_riscv_ram/libfreertos_riscv_ram.a(queue.o)
xTaskRemoveFromEventList                          /home/shoaib/bl_iot_sdk/customer_app/sdk_app_helloworld/build_out/freertos_riscv_ram/libfreertos_riscv_ram.a(tasks.o)
                                                  /home/shoaib/bl_iot_sdk/customer_app/sdk_app_helloworld/build_out/freertos_riscv_ram/libfreertos_riscv_ram.a(queue.o)
xTaskResumeAll                                    /home/shoaib/bl_iot_sdk/customer_app/sdk_app_helloworld/build_out/freertos_riscv_ram/libfreertos_riscv_ram.a(tasks.o)
                                                  /home/shoaib/bl_iot_sdk/customer_app/sdk_app_helloworld/build_out/freertos_riscv_ram/libfreertos_riscv_ram.a(queue.o)
                                                  /home/shoaib/bl_iot_sdk/customer_app/sdk_app_helloworld/build_out/freertos_riscv_ram/libfreertos_riscv_ram.a(heap_5.o)
                                                  /home/shoaib/bl_iot_sdk/customer_app/sdk_app_helloworld/build_out/freertos_riscv_ram/libfreertos_riscv_ram.a(timers.o)
xTaskResumeFromISR                                /home/shoaib/bl_iot_sdk/customer_app/sdk_app_helloworld/build_out/freertos_riscv_ram/libfreertos_riscv_ram.a(tasks.o)
xTimerCreate                                      /home/shoaib/bl_iot_sdk/customer_app/sdk_app_helloworld/build_out/freertos_riscv_ram/libfreertos_riscv_ram.a(timers.o)
xTimerCreateStatic                                /home/shoaib/bl_iot_sdk/customer_app/sdk_app_helloworld/build_out/freertos_riscv_ram/libfreertos_riscv_ram.a(timers.o)
xTimerCreateTimerTask                             /home/shoaib/bl_iot_sdk/customer_app/sdk_app_helloworld/build_out/freertos_riscv_ram/libfreertos_riscv_ram.a(timers.o)
                                                  /home/shoaib/bl_iot_sdk/customer_app/sdk_app_helloworld/build_out/freertos_riscv_ram/libfreertos_riscv_ram.a(tasks.o)
xTimerGenericCommand                              /home/shoaib/bl_iot_sdk/customer_app/sdk_app_helloworld/build_out/freertos_riscv_ram/libfreertos_riscv_ram.a(timers.o)
xTimerGetExpiryTime                               /home/shoaib/bl_iot_sdk/customer_app/sdk_app_helloworld/build_out/freertos_riscv_ram/libfreertos_riscv_ram.a(timers.o)
xTimerGetPeriod                                   /home/shoaib/bl_iot_sdk/customer_app/sdk_app_helloworld/build_out/freertos_riscv_ram/libfreertos_riscv_ram.a(timers.o)
xTimerGetTimerDaemonTaskHandle                    /home/shoaib/bl_iot_sdk/customer_app/sdk_app_helloworld/build_out/freertos_riscv_ram/libfreertos_riscv_ram.a(timers.o)
xTimerIsTimerActive                               /home/shoaib/bl_iot_sdk/customer_app/sdk_app_helloworld/build_out/freertos_riscv_ram/libfreertos_riscv_ram.a(timers.o)
xTimerPendFunctionCall                            /home/shoaib/bl_iot_sdk/customer_app/sdk_app_helloworld/build_out/freertos_riscv_ram/libfreertos_riscv_ram.a(timers.o)
xTimerPendFunctionCallFromISR                     /home/shoaib/bl_iot_sdk/customer_app/sdk_app_helloworld/build_out/freertos_riscv_ram/libfreertos_riscv_ram.a(timers.o)
